(lp0
(lp1
(lp2
F44.26547256431259
aF88.49596687641667
aF83.72827061965612
aF78.80100297504802
aF64.49234026766862
aF46.605461999910005
aF53.764552109545015
aF73.38730116437941
aF84.10970233385335
aF89.34969804688993
aF55.68701380906563
aF34.192471813799415
aF63.688787092025436
aF62.337729009210946
aF35.019806934345624
aF69.93317297872812
aF83.40703738135562
aF66.42033354823425
aF34.67503931601456
aF36.281063023958666
aF30.324825230873614
aF66.3927473726751
aF80.60946759401088
aF59.19148435530329
aF32.558691776308606
aF63.300320118248464
aF64.23812240028653
aF46.37460053455862
aF36.0932716993645
aF43.39623225833313
aF53.10956743939799
aF66.34257145219007
aF69.61186809202344
aF57.6115140966147
aF70.88847803739745
aF43.19921056403391
aF38.80484198575691
aF63.72476831921921
aF62.92679690981945
aF37.72082844058239
aF43.109609728484024
aF36.99040155117089
aF62.35640166590593
aF74.76665220189764
aF74.09606217443792
aF51.95752429194377
aF64.65915035957185
aF44.15269003450766
aF60.20276434301478
aF40.18961176146102
aF31.992760498510826
aF66.98036302764407
aF66.85764486190037
aF87.16705122538579
aF77.09749695044177
aF69.68740395185299
aF40.91716059294191
aF41.21293374079895
aF72.92985540344691
aF60.59034452400266
aF80.11692785796362
aF48.1006994627885
aF34.21065406890632
aF76.61359038005975
aF52.42441991455001
aF50.635646152459145
aF51.90164371645138
aF85.43122982666792
aF41.46118314745055
aF57.68359809157755
aF62.53904456726539
aF38.550737004319224
aF46.86309370054511
aF52.399687640257014
aF63.450624671678646
aF72.04368449182026
aF32.27937408471724
aF33.094178933369676
aF73.64592108224087
aF62.87642313630745
aF84.58214844466725
aF41.601932540723396
aF44.60633433553596
aF41.24365894706578
aF57.6352001302989
aF54.61962243651542
aF59.393680868020525
aF62.50200486223646
aF66.6036257030917
aF78.06261323151342
aF62.495590051253636
aF86.14535057931135
aF67.88189887400107
aF39.91735547111716
aF40.271781336301935
aF30.893690840261105
aF31.7420983817485
aF65.50186151345608
aF87.28903196685732
aF83.91813551199107
aF34.31393498227859
aF49.72895437517736
aF65.82359519329034
aF44.371217116022805
aF42.732673239984265
aF70.26352924075783
aF79.45636421580582
aF53.99194599885644
aF43.28655575418645
aF87.28166692949624
aF54.69979373767483
aF87.80138162912762
aF68.28639884773156
aF85.81239965775464
aF30.60844112807644
aF89.77760064118432
aF78.59330097508362
aF72.83780931498023
aF63.66444525969599
aF46.87273942912966
aF81.03808044281308
aF75.84425172537203
aF82.89684416252612
aF65.57268903238547
aF50.9745460964014
aF69.59966522701717
aF40.58677481546573
aF54.641868474367406
aF50.60096544628905
aF41.04284320810757
aF87.71837205257961
aF53.1213954316336
aF47.36799174945182
aF53.33859528653308
aF71.52661469127078
aF30.323086954180496
aF75.49538300884348
aF87.01621315355203
aF68.32778743578922
aF67.27813086348857
aF34.87763611698408
aF79.73318125403483
aF62.36860646029652
aF62.83429061852838
aF66.77266912536349
aF40.837047193074326
aF88.75594841004333
aF69.07107321269612
aF73.06486949406842
aF69.61668343507941
aF80.97843460635681
aF83.40466203822106
aF75.14450278175553
aF59.43116914711811
aF77.60266097590008
aF53.872610963060765
aF31.206278663857255
aF87.04474771683655
aF41.01919986228479
aF72.96880252077989
aF86.14706064839866
aF33.539950099224875
aF79.81227291278853
aF66.88581959375355
aF53.54872897886588
aF52.703564198761825
aF57.45265443540032
aF55.63731946444739
aF63.287699902539224
aF50.83966902709371
aF86.1462628492483
aF69.51028184511762
aF67.17906347136763
aF58.95495894047414
aF65.88651489542647
aF60.60051543866021
aF61.74569306427579
aF32.409412810336335
aF84.2994278331683
aF87.27441198990226
aF83.3521762979448
aF72.69726770281557
aF49.009408258790785
aF71.86302330490093
aF67.36085398451067
aF59.855366911974095
aF59.08538780741844
aF44.938245392075544
aF82.90657378870384
aF78.5422582992849
aF84.24079363666547
aF77.12244104809255
aF87.10442188766322
aF70.64418021442947
aF59.92527026188782
aF83.10256359264613
aF69.4709314299558
aF74.34355634633062
aF71.2646825403604
aF59.13985765597066
aF66.01737851579517
aF79.96236761120088
aF64.33773054070738
aF39.94542425418948
aF55.30684945075653
aF86.37232812073367
aF87.76893918264739
aF75.03095655107295
aF49.84133920660903
aF54.78910946231372
aF77.3843590623551
aF62.745363629075534
aF52.478074888013346
aF70.81253477405701
aF56.90829077394444
aF77.62272821417146
aF54.4565954642639
aF85.84263609157193
aF51.147398374427965
aF30.709545670900468
aF52.1276501141472
aF58.00832938244014
aF54.19221491300975
aF61.12398498231769
aF76.99852883167813
aF50.406143805556866
aF52.043554123391274
aF63.03809123004313
aF79.97085980381543
aF61.50686336928217
aF80.9823618626431
aF51.85947691914369
aF74.6172051595826
aF72.2242937537969
aF77.31815100883917
aF55.9307842842607
aF62.22205310066088
aF64.92022936756227
aF66.37445235222015
aF58.44534808502916
aF51.96647096698936
aF58.75241290137177
aF66.93816948774659
aF72.8921469669306
aF69.38143802314795
aF48.485155364770634
aF65.50828273078241
aF62.401074140886664
aF81.6197453818491
aF76.59834761278353
aF53.936728329977996
aF87.67497886536992
aF89.28779822642909
aF83.4275057945518
aF59.351569643376294
aF68.01698310668536
aF86.6047676990068
aF50.478048176500025
aF80.81266752828358
aF76.31009581820106
aF55.71690214214365
aF34.528423402617754
aF55.56891859274387
aF53.94077260205741
aF50.47132781200706
aF63.627209698735854
aF40.93097412621367
aF66.40224823423443
aF50.656145069535896
aF66.29334514511183
aF75.15319960845122
aF80.20040138470816
aF50.416145066340306
aF56.90357566081525
aF87.01855269329548
aF84.17221486655694
aF61.39826805688206
aF37.53416979122108
aF57.39777669479179
aF58.714407309393096
aF59.83083678691304
aF58.60927604328403
aF51.995207191418714
aF82.86766775196571
aF77.72361853655818
aF73.02476297153294
aF70.20157405135413
aF44.38338716043171
aF60.81492773380799
aF74.53925192253719
aF79.96382298107903
aF81.47661219761817
aF54.98259692962669
aF84.88397516280155
aF74.48885421626139
aF76.1124632611097
aF64.53693877613001
aF87.51024913674053
aF69.05855907296191
aF50.17825836560228
aF85.89426792431055
aF65.14615749489799
aF87.96143268165054
aF52.5305964861714
aF54.52590968931339
aF85.69737730072903
aF58.54843200293887
aF65.09767602105288
aF58.19095519017523
aF54.95127646413238
aF76.62754004836046
aF72.0729331312771
aF77.02224904376725
aF85.09792157343523
aF82.1083473149761
aaa(lp3
cnumpy.core.multiarray
scalar
p4
(cnumpy
dtype
p5
(S'f8'
p6
I0
I1
tp7
Rp8
(I3
S'<'
p9
NNNI-1
I-1
I0
tp10
bS'\x94\x82\x00\xca#/\xba\xc0'
p11
tp12
Rp13
aa(lp14
(lp15
(lp16
g4
(g8
S'F)\xac\xfeO\x19\xa7@'
p17
tp18
Rp19
aI0
aa(lp20
g4
(g8
S'\xbc[\xdeL\xb3\xbc\x98@'
p21
tp22
Rp23
aI0
aa(lp24
g4
(g8
S'\xdc\x03\x1f{N_\x94@'
p25
tp26
Rp27
aI0
aa(lp28
g4
(g8
S'\x80\xd2\xcb\xb9@%\x84@'
p29
tp30
Rp31
aI0
aa(lp32
g4
(g8
S'\xc0\xd9\xd8\nE\xc4[\xc0'
p33
tp34
Rp35
aI0
aa(lp36
g4
(g8
S'\xa0e\t\xf4n\x8fj\xc0'
p37
tp38
Rp39
aI0
aa(lp40
g4
(g8
S'\x981\xcebV\xd9\x83\xc0'
p41
tp42
Rp43
aI0
aa(lp44
g4
(g8
S'\x98\x98\xf3*^x\x85\xc0'
p45
tp46
Rp47
aI0
aa(lp48
g4
(g8
S',\xf24\xe1\xf4A\x99\xc0'
p49
tp50
Rp51
aI0
aa(lp52
g4
(g8
S',\xcb"\x93\xf9A\x99\xc0'
p53
tp54
Rp55
aI341
aa(lp56
g4
(g8
S'\x9c\x86\x83\x9c`\xd3\x9b\xc0'
p57
tp58
Rp59
aI412
aa(lp60
g4
(g8
S'\xfcx\xa2f\xeb\xaa\x9c\xc0'
p61
tp62
Rp63
aI621
aa(lp64
g4
(g8
S'`i\x1dH\xd0\xab\x9c\xc0'
p65
tp66
Rp67
aI630
aa(lp68
g4
(g8
S'Lm\xd7\xf7,O\x9d\xc0'
p69
tp70
Rp71
aI677
aa(lp72
g4
(g8
S'\x84VcTN_\x9d\xc0'
p73
tp74
Rp75
aI809
aa(lp76
g4
(g8
S'\x90r\x1aI\x84b\x9d\xc0'
p77
tp78
Rp79
aI920
aa(lp80
g4
(g8
S'\\\xe5\x97\x1b\x9e\xea\x9d\xc0'
p81
tp82
Rp83
aI1075
aa(lp84
g4
(g8
S',\xb4\xd4\xdb\xe6\x19\x9e\xc0'
p85
tp86
Rp87
aI1126
aa(lp88
g4
(g8
S'\xb6v\xd6b\xdfV\xa0\xc0'
p89
tp90
Rp91
aI1213
aa(lp92
g4
(g8
S'\x98\xafE(tZ\xa0\xc0'
p93
tp94
Rp95
aI1500
aa(lp96
g4
(g8
S':^\x84C\x17\xbc\xa0\xc0'
p97
tp98
Rp99
aI1606
aa(lp100
g4
(g8
S'\x9c;\x1c\\\xd1\xff\xa0\xc0'
p101
tp102
Rp103
aI1621
aa(lp104
g4
(g8
S'"\xe7\xae\xfe\xdc\x80\xa1\xc0'
p105
tp106
Rp107
aI1860
aa(lp108
g4
(g8
S'\xc2\xb1%B\x9b\x81\xa1\xc0'
p109
tp110
Rp111
aI2026
aa(lp112
g4
(g8
S'T\x99\xed\xf6\t?\xa2\xc0'
p113
tp114
Rp115
aI2053
aa(lp116
g4
(g8
S'\xca\xa4\x03\x9d#C\xa2\xc0'
p117
tp118
Rp119
aI2177
aa(lp120
g4
(g8
S'B849Cp\xa5\xc0'
p121
tp122
Rp123
aI2193
aa(lp124
g4
(g8
S'\xdc\xeb)\x80\xafw\xa5\xc0'
p125
tp126
Rp127
aI2688
aa(lp128
g4
(g8
S'\x08\xb6\xa7\x0eQ\xa9\xa6\xc0'
p129
tp130
Rp131
aI2694
aa(lp132
g4
(g8
S'$\x02O\xe7Y\xb8\xa6\xc0'
p133
tp134
Rp135
aI2723
aa(lp136
g4
(g8
S'\xca?\xb4]\x06\xba\xa6\xc0'
p137
tp138
Rp139
aI3157
aa(lp140
g4
(g8
S'~\xfd8H\x95*\xa8\xc0'
p141
tp142
Rp143
aI3171
aa(lp144
g4
(g8
S'\xaeX\xd8Q?,\xa8\xc0'
p145
tp146
Rp147
aI3566
aa(lp148
g4
(g8
S's\x9c\xeb\xe3lG\xa8\xc0'
p149
tp150
Rp151
aI3713
aa(lp152
g4
(g8
S'\x98Se\xbf{$\xa9\xc0'
p153
tp154
Rp155
aI3905
aa(lp156
g4
(g8
S'V\x851\x95\x92*\xa9\xc0'
p157
tp158
Rp159
aI4165
aa(lp160
g4
(g8
S'\x17I|\x04\xd0A\xa9\xc0'
p161
tp162
Rp163
aI4210
aa(lp164
g4
(g8
S'1\xf9\xa2\x80RB\xa9\xc0'
p165
tp166
Rp167
aI4288
aa(lp168
g4
(g8
S'\xb8\x9e\xfd~^T\xa9\xc0'
p169
tp170
Rp171
aI4470
aa(lp172
g4
(g8
S'\xb4\xb6\x10\xc0\x89\x82\xa9\xc0'
p173
tp174
Rp175
aI4501
aa(lp176
g4
(g8
S'D\xfe\xbeN\xc9\x8c\xaa\xc0'
p177
tp178
Rp179
aI4630
aa(lp180
g4
(g8
S'\xf5\xe0w\r\x98\xb1\xaa\xc0'
p181
tp182
Rp183
aI4650
aa(lp184
g4
(g8
S'\xceUeL\xf2\xbf\xaa\xc0'
p185
tp186
Rp187
aI4766
aa(lp188
g4
(g8
S'@R\xe0\xbf\x89\xa8\xab\xc0'
p189
tp190
Rp191
aI4996
aa(lp192
g4
(g8
S'\xc1)\x95\x97\x12\xb9\xab\xc0'
p193
tp194
Rp195
aI5021
aa(lp196
g4
(g8
S'\x89\xe2\x8b\xdem\x1c\xac\xc0'
p197
tp198
Rp199
aI5065
aa(lp200
g4
(g8
S'qc3\xfc%\x7f\xac\xc0'
p201
tp202
Rp203
aI5138
aa(lp204
g4
(g8
S'\xe6s\x1c\xf6\x83\x19\xad\xc0'
p205
tp206
Rp207
aI5258
aa(lp208
g4
(g8
S'\xdb\xd8\x9b\x0f\x9c\x1b\xad\xc0'
p209
tp210
Rp211
aI5727
aa(lp212
g4
(g8
S'\xaer\xd6\x05 Q\xad\xc0'
p213
tp214
Rp215
aI5781
aa(lp216
g4
(g8
S'\x908\x0b_\x02\xc0\xae\xc0'
p217
tp218
Rp219
aI5917
aa(lp220
g4
(g8
S'}\x0e=2\xe6\xc1\xae\xc0'
p221
tp222
Rp223
aI5921
aa(lp224
g4
(g8
S'e\xce\x14\xc2fT\xaf\xc0'
p225
tp226
Rp227
aI5947
aa(lp228
g4
(g8
S'c\xc1\xcdT\x1aU\xaf\xc0'
p229
tp230
Rp231
aI6109
aa(lp232
g4
(g8
S'\x1c[3\xfa\xc6]\xaf\xc0'
p233
tp234
Rp235
aI6117
aa(lp236
g4
(g8
S'\xb4\x1c\xcb\x0b$^\xaf\xc0'
p237
tp238
Rp239
aI6370
aa(lp240
g4
(g8
S'\x01\xfa\xd6\xa8\xebe\xaf\xc0'
p241
tp242
Rp243
aI6523
aa(lp244
g4
(g8
S'h\x13S\xf6\x9f}\xaf\xc0'
p245
tp246
Rp247
aI6549
aa(lp248
g4
(g8
S'~?\xdc\xc7\x1a\x9e\xaf\xc0'
p249
tp250
Rp251
aI6781
aa(lp252
g4
(g8
S'Y\xc4\xd1d\xcf\xa2\xaf\xc0'
p253
tp254
Rp255
aI6954
aa(lp256
g4
(g8
S'\x10\xf9S\x07ON\xb0\xc0'
p257
tp258
Rp259
aI6972
aa(lp260
g4
(g8
S'}\x14TK\x83\xa3\xb0\xc0'
p261
tp262
Rp263
aI7078
aa(lp264
g4
(g8
S'9\x7fn`\xb4\xa3\xb0\xc0'
p265
tp266
Rp267
aI7291
aa(lp268
g4
(g8
S'\x87}\xb1$z\xab\xb0\xc0'
p269
tp270
Rp271
aI7295
aa(lp272
g4
(g8
S'\xd0\x97\xc0@\\$\xb1\xc0'
p273
tp274
Rp275
aI7453
aa(lp276
g4
(g8
S'd\xb8y\xba\xb6,\xb1\xc0'
p277
tp278
Rp279
aI7564
aa(lp280
g4
(g8
S'\x0c\x12.M\xba,\xb1\xc0'
p281
tp282
Rp283
aI7699
aa(lp284
g4
(g8
S'\xe2\x8b??y-\xb1\xc0'
p285
tp286
Rp287
aI7931
aa(lp288
g4
(g8
S'\xb95\x03\xdc/1\xb1\xc0'
p289
tp290
Rp291
aI7944
aa(lp292
g4
(g8
S'\n\xc6)}\xa0o\xb1\xc0'
p293
tp294
Rp295
aI8015
aa(lp296
g4
(g8
S'\xc0\x84\xa5\x8f\xcc{\xb1\xc0'
p297
tp298
Rp299
aI8198
aa(lp300
g4
(g8
S'\x9es\xf3\xe3\x91\x80\xb1\xc0'
p301
tp302
Rp303
aI8625
aa(lp304
g4
(g8
S'ADJ\xc0\x88\x9d\xb1\xc0'
p305
tp306
Rp307
aI8649
aa(lp308
g4
(g8
S'<\x11^\xbap\xbb\xb1\xc0'
p309
tp310
Rp311
aI8929
aa(lp312
g4
(g8
S'\xbc\xd8\xefe\x9a\xd9\xb1\xc0'
p313
tp314
Rp315
aI8962
aa(lp316
g4
(g8
S'\xc6AM?\x91\xe1\xb1\xc0'
p317
tp318
Rp319
aI8973
aa(lp320
g4
(g8
S'peI\xbe\xdf-\xb2\xc0'
p321
tp322
Rp323
aI9369
aa(lp324
g4
(g8
S':L\xd6\xa7\xbf\xf2\xb2\xc0'
p325
tp326
Rp327
aI9414
aa(lp328
g4
(g8
S'\x04D\xd8\xa7\xbf\xf2\xb2\xc0'
p329
tp330
Rp331
aI9812
aa(lp332
g4
(g8
S'\xfc\xe7]%~\x07\xb3\xc0'
p333
tp334
Rp335
aI9895
aa(lp336
g4
(g8
S'pou;k\x10\xb3\xc0'
p337
tp338
Rp339
aI10064
aa(lp340
g4
(g8
S'\xd2mDI\xfa\x10\xb3\xc0'
p341
tp342
Rp343
aI10208
aa(lp344
g4
(g8
S'\xba \x85\xdd\x88\x19\xb3\xc0'
p345
tp346
Rp347
aI10229
aa(lp348
g4
(g8
S'\xd2&"\xcc\xfd\x1b\xb3\xc0'
p349
tp350
Rp351
aI10260
aa(lp352
g4
(g8
S'\x90g8i\x19:\xb3\xc0'
p353
tp354
Rp355
aI10283
aa(lp356
g4
(g8
S'r\xcc\xaa\x9dd:\xb3\xc0'
p357
tp358
Rp359
aI10579
aa(lp360
g4
(g8
S'\x90\x19\x12m\xa0\x86\xb3\xc0'
p361
tp362
Rp363
aI10580
aa(lp364
g4
(g8
S'V\x8c\xd1\x86a\x91\xb3\xc0'
p365
tp366
Rp367
aI10702
aa(lp368
g4
(g8
S'$\xfb\xc5\xf1\xaa\xa5\xb3\xc0'
p369
tp370
Rp371
aI10724
aa(lp372
g4
(g8
S'\xa1c\xf0\xc4\x17\xff\xb3\xc0'
p373
tp374
Rp375
aI10826
aa(lp376
g4
(g8
S'\x9cr\xa0\xd2\x0b\x00\xb4\xc0'
p377
tp378
Rp379
aI10858
aa(lp380
g4
(g8
S'yg\x07j^\x00\xb4\xc0'
p381
tp382
Rp383
aI10921
aa(lp384
g4
(g8
S'\n~"\x81\x1c\x01\xb4\xc0'
p385
tp386
Rp387
aI11030
aa(lp388
g4
(g8
S'9\xe6\xb1\x9e\x89~\xb4\xc0'
p389
tp390
Rp391
aI11071
aa(lp392
g4
(g8
S'\xa0\xf1\x98\xd4\xe8\x81\xb4\xc0'
p393
tp394
Rp395
aI11121
aa(lp396
g4
(g8
S'\x9crG\x80~\x9c\xb4\xc0'
p397
tp398
Rp399
aI11346
aa(lp400
g4
(g8
S'\xac\x1b1\xd68\xf1\xb4\xc0'
p401
tp402
Rp403
aI11523
aa(lp404
g4
(g8
S'\x84{\xb8{\x82\xf4\xb4\xc0'
p405
tp406
Rp407
aI12156
aa(lp408
g4
(g8
S'\n\x99\xc0\xa5\xcct\xb5\xc0'
p409
tp410
Rp411
aI12187
aa(lp412
g4
(g8
S'\xde\xcd\xd86<|\xb5\xc0'
p413
tp414
Rp415
aI12294
aa(lp416
g4
(g8
S'66\x03h\x10\xad\xb5\xc0'
p417
tp418
Rp419
aI12488
aa(lp420
g4
(g8
S'X\x81t+Y\xbe\xb5\xc0'
p421
tp422
Rp423
aI12766
aa(lp424
g4
(g8
S'\xb2\x00a>Y\xbe\xb5\xc0'
p425
tp426
Rp427
aI13001
aa(lp428
g4
(g8
S'V\x04\xe6\xa2\xe8\xd2\xb5\xc0'
p429
tp430
Rp431
aI13212
aa(lp432
g4
(g8
S'\x0c\xc6\x8a\xb5\xe8\xd2\xb5\xc0'
p433
tp434
Rp435
aI13222
aa(lp436
g4
(g8
S'h\xcb\xb4\x95K\x0e\xb6\xc0'
p437
tp438
Rp439
aI13224
aa(lp440
g4
(g8
S'p\xb57\x8f2\x0f\xb6\xc0'
p441
tp442
Rp443
aI13664
aa(lp444
g4
(g8
S'\xda$\xfcDU\x0f\xb6\xc0'
p445
tp446
Rp447
aI13755
aa(lp448
g4
(g8
S'"\x98\xb0\xbe\x19\x11\xb6\xc0'
p449
tp450
Rp451
aI13854
aa(lp452
g4
(g8
S'\x93\x1c\xb0\x9c\xfb\x93\xb6\xc0'
p453
tp454
Rp455
aI13903
aa(lp456
g4
(g8
S'\x08J\xff\xff5\x94\xb6\xc0'
p457
tp458
Rp459
aI14164
aa(lp460
g4
(g8
S'|\x92\x0c\x0c\x89\x94\xb6\xc0'
p461
tp462
Rp463
aI14214
aa(lp464
g4
(g8
S'^\xbc\xcd\xb8^\xac\xb6\xc0'
p465
tp466
Rp467
aI14535
aa(lp468
g4
(g8
S',\xbb\xdf\x1da\xac\xb6\xc0'
p469
tp470
Rp471
aI14576
aa(lp472
g4
(g8
S'\xd0s\xbd\x0cN\xd1\xb6\xc0'
p473
tp474
Rp475
aI14627
aa(lp476
g4
(g8
S'\xdf\xf2\xe2=\x98\xff\xb6\xc0'
p477
tp478
Rp479
aI14891
aa(lp480
g4
(g8
S'\x83\\\xe2\x9e\xc7\x16\xb7\xc0'
p481
tp482
Rp483
aI15140
aa(lp484
g4
(g8
S'&\xdd\x08\x84\x8co\xb7\xc0'
p485
tp486
Rp487
aI15235
aa(lp488
g4
(g8
S'J#F\xf8`\xa4\xb7\xc0'
p489
tp490
Rp491
aI15403
aa(lp492
g4
(g8
S'%q\x16\xe3&\xc1\xb7\xc0'
p493
tp494
Rp495
aI15835
aa(lp496
g4
(g8
S'\x12%\xb0Dk\xef\xb7\xc0'
p497
tp498
Rp499
aI16084
aa(lp500
g4
(g8
S'\xed2\x9e`-\xf0\xb7\xc0'
p501
tp502
Rp503
aI16748
aa(lp504
g4
(g8
S'CB\x00\xbeo\xf0\xb7\xc0'
p505
tp506
Rp507
aI16807
aa(lp508
g4
(g8
S'r\xf4\x07\xc6<\xe0\xb8\xc0'
p509
tp510
Rp511
aI16813
aa(lp512
g4
(g8
S'\xb9\xad2Y\x19\xe1\xb8\xc0'
p513
tp514
Rp515
aI16900
aa(lp516
g4
(g8
S'W\x88\\\xfd\x9d\xe9\xb8\xc0'
p517
tp518
Rp519
aI17022
aa(lp520
g4
(g8
S':\x0bsr\xf2\xed\xb8\xc0'
p521
tp522
Rp523
aI17169
aa(lp524
g4
(g8
S'<\x0bsr\xf2\xed\xb8\xc0'
p525
tp526
Rp527
aI17334
aa(lp528
g4
(g8
S'\xfe\x1ex\xe8\x1c\xfb\xb8\xc0'
p529
tp530
Rp531
aI17448
aa(lp532
g4
(g8
S'\xe6\xc9%N\xb5\xfb\xb8\xc0'
p533
tp534
Rp535
aI17622
aa(lp536
g4
(g8
S'\x02m\xde\xdd\xf8\x02\xb9\xc0'
p537
tp538
Rp539
aI17672
aa(lp540
g4
(g8
S' #\xfe\xfaB\x07\xb9\xc0'
p541
tp542
Rp543
aI17742
aa(lp544
g4
(g8
S'\xe4\xe0\xd8\x1eQ\x16\xb9\xc0'
p545
tp546
Rp547
aI17971
aa(lp548
g4
(g8
S'c`\xb5\x7fx\x83\xb9\xc0'
p549
tp550
Rp551
aI18036
aa(lp552
g4
(g8
S'e`\xb5\x7fx\x83\xb9\xc0'
p553
tp554
Rp555
aI18128
aa(lp556
g4
(g8
S'\xdb4N\x80\xb6\x85\xb9\xc0'
p557
tp558
Rp559
aI18489
aa(lp560
g4
(g8
S'@3G\x16\x9c\x87\xb9\xc0'
p561
tp562
Rp563
aI18646
aa(lp564
g4
(g8
S'\x8c\xe9?@\xc5\x87\xb9\xc0'
p565
tp566
Rp567
aI18672
aa(lp568
g4
(g8
S'n\x01&\xc7\x16\x90\xb9\xc0'
p569
tp570
Rp571
aI18708
aa(lp572
g4
(g8
S'8\xac+\x89y\xae\xb9\xc0'
p573
tp574
Rp575
aI18715
aa(lp576
g4
(g8
S'\xdcE\x15\xcc\x94\xda\xb9\xc0'
p577
tp578
Rp579
aI19029
aa(lp580
g4
(g8
S'@\x87I\xe3\xf1\x18\xba\xc0'
p581
tp582
Rp583
aI19236
aa(lp584
g4
(g8
S'v\xff@\xb4q%\xba\xc0'
p585
tp586
Rp587
aI19673
aa(lp588
g4
(g8
S'\x107*\xbbq%\xba\xc0'
p589
tp590
Rp591
aI19886
aa(lp592
g13
aI19918
aaaa.