(lp0
(lp1
(lp2
F44.960202853205004
aF35.24408376078839
aF87.5061929060347
aF76.8917111137416
aF84.20551546402051
aF79.11089839467215
aF71.79630447163026
aF61.86182489042305
aF42.87389817946202
aF38.93848341798112
aF36.432945275571846
aF59.727533295953954
aF56.38959258192094
aF41.70722518529345
aF46.32243251847336
aF76.60266679164914
aF36.21834231966501
aF42.740826931620845
aF32.3581795595974
aF30.127735645961543
aF49.24537405439829
aF78.72811234274837
aF31.047426443495834
aF69.15572049777285
aF51.28144802140276
aF66.28781699844887
aF69.953331198661
aF54.74366968353681
aF32.640743719516536
aF40.123233365312174
aF31.949798015415475
aF70.47959799153216
aF38.104944123582456
aF42.747119656581376
aF82.16871830532135
aF60.58528145134258
aF86.95579141867441
aF68.1220636210857
aF56.50901602213167
aF54.59920540780492
aF37.14539605845392
aF51.933128199555114
aF57.222585277944795
aF75.0988177580031
aF38.535890254020124
aF68.52513719905723
aF68.83425983315249
aF64.39052933723481
aF59.14724481586008
aF50.36534704008631
aF41.74577469885634
aF76.05780070889625
aF64.00978603901154
aF48.76315271384019
aF68.58903397977764
aF65.43835088984032
aF59.66025985350474
aF59.684498394033724
aF32.506204662958524
aF34.41564834671011
aF40.86652948706071
aF32.80069185664263
aF53.687860922264115
aF77.32421924652581
aF58.22533243745342
aF52.85765289261248
aF78.7411592233983
aF82.099889665679
aF57.835188707230074
aF53.417915959681324
aF72.85726011543935
aF61.01520222795648
aF31.21501504253546
aF65.98832060252448
aF50.262950453539815
aF81.29581947672871
aF31.47378537982614
aF83.33563869052028
aF63.714247646337036
aF58.39914919479225
aF36.08456813360987
aF56.9072334313164
aF44.81170478179031
aF33.07354357082585
aF78.6094579226783
aF72.37069947131336
aF35.31437667372563
aF41.39945241756213
aF76.62620446757492
aF67.94939781499409
aF36.04974473585045
aF35.6729888807142
aF80.4176377457174
aF35.562696183316675
aF64.42120986632763
aF60.72240423400035
aF37.55014264826734
aF30.864071715071372
aF83.0055779282387
aF70.58340857269616
aF71.70795996920805
aF63.93886324147672
aF71.23099395337945
aF44.33373935000692
aF37.93081339912996
aF64.24958284690469
aF68.35821922609891
aF38.18904492648451
aF56.80928552566556
aF51.75504580255702
aF85.31308749733424
aF68.94426534470824
aF68.38191872823906
aF40.42539519057447
aF47.28080534753206
aF70.52978084743464
aF51.08679039632706
aF33.31609596622991
aF56.74698868894025
aF40.6282024453032
aF34.55344070071813
aF69.60939530282565
aF35.17548430005852
aF81.73383057734958
aF30.66328801080645
aF40.90405282147701
aF53.06103915521351
aF85.94852459534974
aF82.69125584259628
aF86.10726556383057
aF84.13127930110348
aF57.74611174365721
aF85.09039904342472
aF80.82593969787575
aF51.62522513903497
aF63.490602650758206
aF88.85350754333365
aF75.33448427461737
aF80.94862495300733
aF66.13617702194176
aF48.081514476447666
aF57.46846996583986
aF58.06499654754789
aF58.6689901184873
aF38.15009385505853
aF45.955363646065734
aF47.07236968294933
aF77.90664726604362
aF60.667691287155144
aF69.31073153861196
aF52.483736719296324
aF70.0957901292271
aF67.42190757744397
aF62.94575468113238
aF67.2275088078187
aF70.8313439933641
aF43.17811694361798
aF58.55158857901395
aF64.51756371609818
aF89.49417875314742
aF73.24515031512863
aF35.43958671579594
aF65.97153340444943
aF54.12216953073399
aF71.02251631430032
aF51.3633631270349
aF51.798342504088424
aF85.47130909537967
aF58.57124338378104
aF30.88446110331931
aF85.56478106489806
aF76.46086855112858
aF89.10330386871686
aF76.52831513909095
aF70.56124376421832
aF81.8312308113712
aF75.95862536326587
aF56.31367896391072
aF85.86865049854094
aF68.781230176948
aF54.833786490766826
aF83.93824947950614
aF50.776993296960605
aF66.68819921006823
aF36.985899267072995
aF76.52240502895589
aF51.48685825585625
aF46.09847842921299
aF80.92096629274275
aF67.8538866370031
aF85.25560704387087
aF73.09646067892871
aF55.421967222586716
aF43.896998010620166
aF50.80960385957462
aF58.614566029366
aF76.09350742996342
aF52.946269942327135
aF31.73039523119587
aF50.80871839185001
aF79.87619102065347
aF60.88929335161855
aF62.10328590253903
aF81.87954169796538
aF64.75113063201286
aF59.2612919519046
aF74.88826609280653
aF84.39963974325958
aF65.96240871369943
aF82.37741646387306
aF72.46658159989397
aF66.12471919243401
aF74.23830926624993
aF56.24838868541501
aF78.95513012566818
aF58.95748533799479
aF65.59660010028448
aF82.9109996735311
aF47.40916583399762
aF35.04339592770065
aF88.35374840883301
aF55.93933587893913
aF89.08513888528276
aF52.95066209030611
aF53.39505942421344
aF58.4017345901892
aF67.31295598140838
aF73.54442064089416
aF89.56200737900863
aF58.646947730055544
aF75.16003082534178
aF58.032652811457346
aF67.75270289508656
aF76.15745706499314
aF53.184290363620775
aF45.74431708074389
aF54.00398143195725
aF57.99972238204426
aF72.59200158896653
aF56.99775003399443
aF35.558667214809056
aF66.16388717854548
aF89.69357071182796
aF73.06186036948763
aF51.4530286154262
aF87.92576705093266
aF84.70370304626078
aF70.82929457237044
aF51.060460477410956
aF50.339269654865056
aF66.0468732934813
aF57.77066443323657
aF88.12280364389821
aF63.240297699393764
aF75.26607343156621
aF84.22979574591992
aF64.63335342916083
aF58.79307575218779
aF64.27405645878997
aF66.97676266840327
aF77.14105408270683
aF39.130050894394486
aF72.21609879713563
aF70.72659504200838
aF71.45557198690408
aF82.86000904710428
aF81.06127111801337
aF57.85393740829535
aF77.19970740450015
aF85.50004703916625
aF82.93350378812693
aF87.9859340915017
aF87.62821189166856
aF64.91744094711895
aF88.14508200688898
aF61.48376119224699
aF59.872693124361724
aF48.60260645132427
aF62.80016312301381
aF63.2753751878833
aF89.55160272776644
aF75.07415972221041
aF50.66439506304548
aF66.47428841091951
aF51.1268987432307
aF52.023795564689934
aF55.57233935009977
aF45.71829587801653
aF76.89617589638675
aF73.8651722027763
aF70.76430949489337
aF68.14160359058201
aF66.94019068468006
aF86.83883294550546
aF68.02829539956848
aF61.23349942340279
aF69.5504903966907
aF87.02923991007866
aF53.066384346123854
aF60.338610146604665
aF61.97395990681369
aF84.75599452316678
aF82.85451520576706
aF51.081785027108076
aF50.47736675448416
aF68.03499196406544
aF57.09270487872716
aF63.07962091488389
aF64.8692480142727
aF73.33719510449853
aF79.03606052062554
aF84.54515798991036
aF84.02057422805626
aF80.28118805516765
aF68.10326040950602
aaa(lp3
cnumpy.core.multiarray
scalar
p4
(cnumpy
dtype
p5
(S'f8'
p6
I0
I1
tp7
Rp8
(I3
S'<'
p9
NNNI-1
I-1
I0
tp10
bS'\xfa\xf8\xffr\xd1\x9b\xb9\xc0'
p11
tp12
Rp13
aa(lp14
(lp15
(lp16
g4
(g8
S'\xdf\xcf\xbdJ:\xcc\xc5@'
p17
tp18
Rp19
aI0
aa(lp20
g4
(g8
S'^\xef\xa9?\xa2\xfa\xa7@'
p21
tp22
Rp23
aI0
aa(lp24
g4
(g8
S'\xf0\xca\xe7^\x13\xab\x9d@'
p25
tp26
Rp27
aI0
aa(lp28
g4
(g8
S'\xf4\x83+\xd4G\x05\x94@'
p29
tp30
Rp31
aI0
aa(lp32
g4
(g8
S'\xa0\xf7\xa2\xef\xb4\xaf\x8d@'
p33
tp34
Rp35
aI0
aa(lp36
g4
(g8
S'\xb0\x02OX\xccUz@'
p37
tp38
Rp39
aI0
aa(lp40
g4
(g8
S"\x80v' ^\xd3o@"
p41
tp42
Rp43
aI0
aa(lp44
g4
(g8
S'\x80$\xd4<r8L@'
p45
tp46
Rp47
aI0
aa(lp48
g4
(g8
S'\xe0c\x19<\xfe\x91c\xc0'
p49
tp50
Rp51
aI0
aa(lp52
g4
(g8
S'0\xc9\xc8\x05A\xf8\x89\xc0'
p53
tp54
Rp55
aI0
aa(lp56
g4
(g8
S'<\x979\x0f=\x9c\x90\xc0'
p57
tp58
Rp59
aI0
aa(lp60
g4
(g8
S'l\x17n\x03L\xb9\x91\xc0'
p61
tp62
Rp63
aI0
aa(lp64
g4
(g8
S'\x08\xcca\x95j\xe7\x95\xc0'
p65
tp66
Rp67
aI76
aa(lp68
g4
(g8
S'\xe4\xf2\x18\xecv\xcc\x99\xc0'
p69
tp70
Rp71
aI222
aa(lp72
g4
(g8
S'\x8c=E\x06\x9e\x06\x9b\xc0'
p73
tp74
Rp75
aI419
aa(lp76
g4
(g8
S'\x18\x98\x03\xb5+\x15\x9b\xc0'
p77
tp78
Rp79
aI510
aa(lp80
g4
(g8
S'd\xb6\xaa.z\x15\x9b\xc0'
p81
tp82
Rp83
aI656
aa(lp84
g4
(g8
S'\x1e\xc4Rh0\xed\xa0\xc0'
p85
tp86
Rp87
aI862
aa(lp88
g4
(g8
S'\xfcb\x19\x8a\x80\xb7\xa1\xc0'
p89
tp90
Rp91
aI1255
aa(lp92
g4
(g8
S'\x82\xc1\x0b\xbd\x80\xb7\xa1\xc0'
p93
tp94
Rp95
aI1738
aa(lp96
g4
(g8
S'T\xf950\xda\xc0\xa1\xc0'
p97
tp98
Rp99
aI1815
aa(lp100
g4
(g8
S'\x06\xb2\x17\x19\xc8\xb5\xa2\xc0'
p101
tp102
Rp103
aI1889
aa(lp104
g4
(g8
S'\xb2\x1b,6\xef\xca\xa2\xc0'
p105
tp106
Rp107
aI2309
aa(lp108
g4
(g8
S'\x06\xd5\xfa\x0b\x83\x81\xa3\xc0'
p109
tp110
Rp111
aI2320
aa(lp112
g4
(g8
S'&C\x91\xec]-\xa5\xc0'
p113
tp114
Rp115
aI2339
aa(lp116
g4
(g8
S'P\xe8\x80\xaaY5\xa5\xc0'
p117
tp118
Rp119
aI2728
aa(lp120
g4
(g8
S'\xcek\xf2\x17\xcb7\xa5\xc0'
p121
tp122
Rp123
aI2866
aa(lp124
g4
(g8
S'hn\x8b\x1cH>\xa5\xc0'
p125
tp126
Rp127
aI2929
aa(lp128
g4
(g8
S'\x94RgG\x9f?\xa5\xc0'
p129
tp130
Rp131
aI3145
aa(lp132
g4
(g8
S'J\xefT\x84\xb5o\xa6\xc0'
p133
tp134
Rp135
aI3219
aa(lp136
g4
(g8
S'\x18\x06aP\x88y\xa6\xc0'
p137
tp138
Rp139
aI3309
aa(lp140
g4
(g8
S'\xae\xd5\xef<\xc3}\xa6\xc0'
p141
tp142
Rp143
aI3707
aa(lp144
g4
(g8
S'\x10\xce\xe0\x86\xcc\xd2\xa7\xc0'
p145
tp146
Rp147
aI3795
aa(lp148
g4
(g8
S' \xf5\xa4\xee\x18\xd7\xa7\xc0'
p149
tp150
Rp151
aI3835
aa(lp152
g4
(g8
S'\xe7\x8f\xe9\xc4\xc3\xac\xa8\xc0'
p153
tp154
Rp155
aI3907
aa(lp156
g4
(g8
S'\x9f(n\xb6\x8c\xee\xaa\xc0'
p157
tp158
Rp159
aI3930
aa(lp160
g4
(g8
S'\x87:\xab\xf5O \xab\xc0'
p161
tp162
Rp163
aI4153
aa(lp164
g4
(g8
S'&\xb4\x17\xc5]{\xab\xc0'
p165
tp166
Rp167
aI4332
aa(lp168
g4
(g8
S"\xfd4'T\t\xb8\xab\xc0"
p169
tp170
Rp171
aI4662
aa(lp172
g4
(g8
S'\x9c\xf1F\x01\x96\xd4\xab\xc0'
p173
tp174
Rp175
aI4835
aa(lp176
g4
(g8
S'5\xfc\xa4B,.\xad\xc0'
p177
tp178
Rp179
aI4975
aa(lp180
g4
(g8
S'y\xdc\t\xa7>.\xad\xc0'
p181
tp182
Rp183
aI5078
aa(lp184
g4
(g8
S'\xef\x89n\xa8\xba1\xad\xc0'
p185
tp186
Rp187
aI5166
aa(lp188
g4
(g8
S'm\xef\xb6\x1d\x8a<\xad\xc0'
p189
tp190
Rp191
aI5250
aa(lp192
g4
(g8
S"\xb2Ay\x82'@\xad\xc0"
p193
tp194
Rp195
aI5304
aa(lp196
g4
(g8
S'\xa5\xcaA\xf2(M\xad\xc0'
p197
tp198
Rp199
aI5366
aa(lp200
g4
(g8
S'\xac\xf92e\xbfR\xad\xc0'
p201
tp202
Rp203
aI5543
aa(lp204
g4
(g8
S'\xbe\x87NQ\xfd\xba\xad\xc0'
p205
tp206
Rp207
aI5609
aa(lp208
g4
(g8
S'\xc3\x0e\x88\x15\xbf\xc0\xad\xc0'
p209
tp210
Rp211
aI5648
aa(lp212
g4
(g8
S'\xa0\xbf\x9f\xe1cv\xae\xc0'
p213
tp214
Rp215
aI5675
aa(lp216
g4
(g8
S'\x978\x06MS\x8e\xae\xc0'
p217
tp218
Rp219
aI5842
aa(lp220
g4
(g8
S'%o\xb7\x95\xe1\x93\xae\xc0'
p221
tp222
Rp223
aI5886
aa(lp224
g4
(g8
S'\x13\x1b\x1a,\xe3\x93\xae\xc0'
p225
tp226
Rp227
aI5949
aa(lp228
g4
(g8
S'\xa0\x98\xe1\x0b\xb5\x9b\xae\xc0'
p229
tp230
Rp231
aI5975
aa(lp232
g4
(g8
S'H\xc9\xef$\x0c\x9f\xae\xc0'
p233
tp234
Rp235
aI6263
aa(lp236
g4
(g8
S'G\x0c\x81\x13\x1b\xb1\xae\xc0'
p237
tp238
Rp239
aI6300
aa(lp240
g4
(g8
S'\xc2\\\x1cN\xa1\x11\xaf\xc0'
p241
tp242
Rp243
aI6497
aa(lp244
g4
(g8
S'\xab\xa3\xa8t\xa1\x11\xaf\xc0'
p245
tp246
Rp247
aI6698
aa(lp248
g4
(g8
S'q\x95?r\x183\xaf\xc0'
p249
tp250
Rp251
aI6712
aa(lp252
g4
(g8
S'\x04\x02\x12\x15\nE\xaf\xc0'
p253
tp254
Rp255
aI6717
aa(lp256
g4
(g8
S'R\xee\x03 U\xf8\xaf\xc0'
p257
tp258
Rp259
aI6744
aa(lp260
g4
(g8
S'\xc8>\x02\x0f\x02\xfe\xaf\xc0'
p261
tp262
Rp263
aI6813
aa(lp264
g4
(g8
S'3f\xce\xbfe\xa5\xb0\xc0'
p265
tp266
Rp267
aI6876
aa(lp268
g4
(g8
S'F\x14\x8e\x04\x1c\xa7\xb0\xc0'
p269
tp270
Rp271
aI6886
aa(lp272
g4
(g8
S'*\x9c\xbe\xb9\xbc\xb6\xb0\xc0'
p273
tp274
Rp275
aI7063
aa(lp276
g4
(g8
S'\x8d"[\x10J\xbc\xb0\xc0'
p277
tp278
Rp279
aI7223
aa(lp280
g4
(g8
S'\xbbh\xf6\x0e\xb7\xbc\xb0\xc0'
p281
tp282
Rp283
aI7284
aa(lp284
g4
(g8
S'8\x1b\xfa\xc4\x9f\x19\xb1\xc0'
p285
tp286
Rp287
aI7300
aa(lp288
g4
(g8
S'~0\x0f\xe7\xd2(\xb1\xc0'
p289
tp290
Rp291
aI7738
aa(lp292
g4
(g8
S'\xb4\r\x053\xed\x8c\xb1\xc0'
p293
tp294
Rp295
aI7895
aa(lp296
g4
(g8
S'\xea\xf0i\xa0\x0e\x9b\xb1\xc0'
p297
tp298
Rp299
aI8110
aa(lp300
g4
(g8
S'\xca0\xd5\x8d\x8c\xb6\xb1\xc0'
p301
tp302
Rp303
aI8149
aa(lp304
g4
(g8
S'\x93/\xa4\xdf\x8c\xb6\xb1\xc0'
p305
tp306
Rp307
aI8235
aa(lp308
g4
(g8
S'V\xbd}\xcf\x83\xb8\xb1\xc0'
p309
tp310
Rp311
aI8306
aa(lp312
g4
(g8
S'\xe9\xbc\xf8_\x9f\x15\xb2\xc0'
p313
tp314
Rp315
aI8586
aa(lp316
g4
(g8
S'\xbfG\xc6\xef\xed!\xb2\xc0'
p317
tp318
Rp319
aI8903
aa(lp320
g4
(g8
S'\xe2\xccr\x02\xcf\x7f\xb2\xc0'
p321
tp322
Rp323
aI8939
aa(lp324
g4
(g8
S'\xc8<W\xc1\xd3\x7f\xb2\xc0'
p325
tp326
Rp327
aI9163
aa(lp328
g4
(g8
S'$\x934\x9d\xcb\x94\xb2\xc0'
p329
tp330
Rp331
aI9276
aa(lp332
g4
(g8
S'\x90\xb1\xcd\xe1\x11\xb0\xb2\xc0'
p333
tp334
Rp335
aI9367
aa(lp336
g4
(g8
S"\x1fP'?i\xb0\xb2\xc0"
p337
tp338
Rp339
aI9426
aa(lp340
g4
(g8
S'\xe6\x1fWLi\xb0\xb2\xc0'
p341
tp342
Rp343
aI9554
aa(lp344
g4
(g8
S'(\xd76\xc8r\xb0\xb2\xc0'
p345
tp346
Rp347
aI9840
aa(lp348
g4
(g8
S'\xa1\x87\xaa\xe0\xef\xb6\xb2\xc0'
p349
tp350
Rp351
aI9890
aa(lp352
g4
(g8
S'\x82\xfc\r7\xc7\xbb\xb2\xc0'
p353
tp354
Rp355
aI9903
aa(lp356
g4
(g8
S'|\x90S$\x12<\xb3\xc0'
p357
tp358
Rp359
aI10077
aa(lp360
g4
(g8
S'\xde\xa6\xc2d\x8db\xb3\xc0'
p361
tp362
Rp363
aI10083
aa(lp364
g4
(g8
S'\xf8B\xa8\xaa&c\xb3\xc0'
p365
tp366
Rp367
aI10151
aa(lp368
g4
(g8
S'\x00\xa71\x06\xd3\x8e\xb3\xc0'
p369
tp370
Rp371
aI10202
aa(lp372
g4
(g8
S'\xdeV\xcb\xac\xd7\x90\xb3\xc0'
p373
tp374
Rp375
aI10498
aa(lp376
g4
(g8
S'\x08>\xaf\xd4\xeab\xb4\xc0'
p377
tp378
Rp379
aI10644
aa(lp380
g4
(g8
S'\x94\x8e\x86\x0e\xebb\xb4\xc0'
p381
tp382
Rp383
aI10788
aa(lp384
g4
(g8
S'Dg\x88j\x95f\xb4\xc0'
p385
tp386
Rp387
aI10953
aa(lp388
g4
(g8
S'\xfcS\xb2=\xf2i\xb4\xc0'
p389
tp390
Rp391
aI10994
aa(lp392
g4
(g8
S'5]\xd2\x8d\xf2i\xb4\xc0'
p393
tp394
Rp395
aI11054
aa(lp396
g4
(g8
S'\n\x89\xc2\xe2<n\xb4\xc0'
p397
tp398
Rp399
aI11275
aa(lp400
g4
(g8
S'\t\xc9\x1e\xf94x\xb4\xc0'
p401
tp402
Rp403
aI11278
aa(lp404
g4
(g8
S'~\x99g.\x98\x83\xb4\xc0'
p405
tp406
Rp407
aI11569
aa(lp408
g4
(g8
S'6_\x92\xc5I\xb3\xb4\xc0'
p409
tp410
Rp411
aI11704
aa(lp412
g4
(g8
S'\x1327\xd7\x952\xb5\xc0'
p413
tp414
Rp415
aI11933
aa(lp416
g4
(g8
S')\x9e\x0fD\xba2\xb5\xc0'
p417
tp418
Rp419
aI12144
aa(lp420
g4
(g8
S'\x1b`\x92@e7\xb5\xc0'
p421
tp422
Rp423
aI12163
aa(lp424
g4
(g8
S'@\xc65=\xb8:\xb5\xc0'
p425
tp426
Rp427
aI12240
aa(lp428
g4
(g8
S'\x86P\x10%\xec:\xb5\xc0'
p429
tp430
Rp431
aI12261
aa(lp432
g4
(g8
S'y<\xf8F&;\xb5\xc0'
p433
tp434
Rp435
aI12325
aa(lp436
g4
(g8
S'\xa3\x7f\xab\xd6&;\xb5\xc0'
p437
tp438
Rp439
aI12386
aa(lp440
g4
(g8
S'uF\xa9\x99M?\xb5\xc0'
p441
tp442
Rp443
aI12468
aa(lp444
g4
(g8
S'\xa1\xe3\xfc\xe2\xccN\xb5\xc0'
p445
tp446
Rp447
aI12805
aa(lp448
g4
(g8
S'%\xd4B\r\x1bw\xb5\xc0'
p449
tp450
Rp451
aI12853
aa(lp452
g4
(g8
S'\xaf\xe0\x0c\xa1\xbex\xb5\xc0'
p453
tp454
Rp455
aI12910
aa(lp456
g4
(g8
S'\xf3\x8aH\xfee\xa6\xb5\xc0'
p457
tp458
Rp459
aI12919
aa(lp460
g4
(g8
S'\x1f+@l\x95\xc1\xb5\xc0'
p461
tp462
Rp463
aI12983
aa(lp464
g4
(g8
S'\xc7\x0e\xf6\xd2\xdc\xf5\xb5\xc0'
p465
tp466
Rp467
aI13289
aa(lp468
g4
(g8
S'\xf8\xbc\xeb\xb9\x18\x08\xb6\xc0'
p469
tp470
Rp471
aI13404
aa(lp472
g4
(g8
S'nB\xf3\xbc\x18\x08\xb6\xc0'
p473
tp474
Rp475
aI13428
aa(lp476
g4
(g8
S'h\xd4\x99\x9cm\x1d\xb6\xc0'
p477
tp478
Rp479
aI13662
aa(lp480
g4
(g8
S'\x0b4\x02\xb4\xd73\xb6\xc0'
p481
tp482
Rp483
aI13674
aa(lp484
g4
(g8
S'\xa0\xc79\xe4\xb5>\xb6\xc0'
p485
tp486
Rp487
aI13792
aa(lp488
g4
(g8
S'\t<\x85$\xe6K\xb6\xc0'
p489
tp490
Rp491
aI13793
aa(lp492
g4
(g8
S'j@\xb4\x01\x8bX\xb6\xc0'
p493
tp494
Rp495
aI13843
aa(lp496
g4
(g8
S"(#'i\xdc`\xb6\xc0"
p497
tp498
Rp499
aI14193
aa(lp500
g4
(g8
S'\xa5?\x17t\x95\xc1\xb6\xc0'
p501
tp502
Rp503
aI14210
aa(lp504
g4
(g8
S'\xa1R(t\x95\xc1\xb6\xc0'
p505
tp506
Rp507
aI14296
aa(lp508
g4
(g8
S'\xcc\xaa\x88t\x95\xc1\xb6\xc0'
p509
tp510
Rp511
aI14641
aa(lp512
g4
(g8
S'\xea \xb4Z*\xc3\xb6\xc0'
p513
tp514
Rp515
aI14777
aa(lp516
g4
(g8
S'\x18\x1d&pp\xc5\xb6\xc0'
p517
tp518
Rp519
aI14920
aa(lp520
g4
(g8
S'\xf8$*[v\xef\xb6\xc0'
p521
tp522
Rp523
aI15219
aa(lp524
g4
(g8
S'\xc0\x86\xfd\xb6\xa9H\xb7\xc0'
p525
tp526
Rp527
aI15347
aa(lp528
g4
(g8
S'f\xf8\xbfn\xf2N\xb7\xc0'
p529
tp530
Rp531
aI15553
aa(lp532
g4
(g8
S'\r\xa3\xe8\xc67S\xb7\xc0'
p533
tp534
Rp535
aI15601
aa(lp536
g4
(g8
S"'\xe7\xc4\xa8IS\xb7\xc0"
p537
tp538
Rp539
aI15647
aa(lp540
g4
(g8
S'd\xa5\xe7;\xce^\xb7\xc0'
p541
tp542
Rp543
aI15664
aa(lp544
g4
(g8
S'\xa4H/\x7f\x8a`\xb7\xc0'
p545
tp546
Rp547
aI15705
aa(lp548
g4
(g8
S'\xb4\x03\xc7\x8e\x91c\xb7\xc0'
p549
tp550
Rp551
aI15911
aa(lp552
g4
(g8
S'<B6\x90\x91c\xb7\xc0'
p553
tp554
Rp555
aI15924
aa(lp556
g4
(g8
S'\xe5\x05\x12+\xac\xac\xb7\xc0'
p557
tp558
Rp559
aI16003
aa(lp560
g4
(g8
S'\xf3c/\xa7\x12\x10\xb8\xc0'
p561
tp562
Rp563
aI16148
aa(lp564
g4
(g8
S'\xb1 \x97\x10\x06\x12\xb8\xc0'
p565
tp566
Rp567
aI16161
aa(lp568
g4
(g8
S'\xec\xa7\x81\x1c\x06\x12\xb8\xc0'
p569
tp570
Rp571
aI16240
aa(lp572
g4
(g8
S'\x01\x1bQ]F\x1e\xb8\xc0'
p573
tp574
Rp575
aI16255
aa(lp576
g4
(g8
S'z\xb5\x0f\xf2\xc5\x1e\xb8\xc0'
p577
tp578
Rp579
aI16360
aa(lp580
g4
(g8
S'l8-\x9f\xdd#\xb8\xc0'
p581
tp582
Rp583
aI16390
aa(lp584
g4
(g8
S'\xca\xb4B\x00h&\xb8\xc0'
p585
tp586
Rp587
aI16505
aa(lp588
g4
(g8
S'\xb2B\xb0\xf96\x81\xb8\xc0'
p589
tp590
Rp591
aI16622
aa(lp592
g4
(g8
S'n\xf2C\x9d\x86\x8d\xb8\xc0'
p593
tp594
Rp595
aI16853
aa(lp596
g4
(g8
S'nv\xd6TY\x9b\xb8\xc0'
p597
tp598
Rp599
aI16878
aa(lp600
g4
(g8
S'\xea\x10E(&\xb3\xb8\xc0'
p601
tp602
Rp603
aI17505
aa(lp604
g4
(g8
S'\x8b\xad\x85\xff\x89\xf4\xb8\xc0'
p605
tp606
Rp607
aI17639
aa(lp608
g4
(g8
S"'y\x08I\x8c\xf4\xb8\xc0"
p609
tp610
Rp611
aI17970
aa(lp612
g4
(g8
S'W\xeb\xder\n\xfa\xb8\xc0'
p613
tp614
Rp615
aI18303
aa(lp616
g4
(g8
S'\x1c&r\x15]\xfc\xb8\xc0'
p617
tp618
Rp619
aI18469
aa(lp620
g4
(g8
S'\xb8\xcfs!\xc1\xfd\xb8\xc0'
p621
tp622
Rp623
aI18600
aa(lp624
g4
(g8
S'\x02\tn\xfb\x96\x06\xb9\xc0'
p625
tp626
Rp627
aI18651
aa(lp628
g4
(g8
S'\x070`\x11\xb3\x16\xb9\xc0'
p629
tp630
Rp631
aI18727
aa(lp632
g4
(g8
S'\xba\xa9\x1b\xf5\xdf\x1b\xb9\xc0'
p633
tp634
Rp635
aI19042
aa(lp636
g4
(g8
S'f\x1a\xb3\xea\x0b\x1d\xb9\xc0'
p637
tp638
Rp639
aI19090
aa(lp640
g4
(g8
S'4}b\xa0YX\xb9\xc0'
p641
tp642
Rp643
aI19185
aa(lp644
g4
(g8
S'\xb6\x8b\xa5 ZX\xb9\xc0'
p645
tp646
Rp647
aI19424
aa(lp648
g4
(g8
S'\xed\x83\x93\xb7\x8e\x8d\xb9\xc0'
p649
tp650
Rp651
aI19634
aa(lp652
g13
aI19780
aaaa.