(lp0
(lp1
(lp2
F78.76432701530968
aF73.35973140413638
aF34.07668171630752
aF32.730502011383784
aF81.08807275247034
aF81.18491165778322
aF57.484649106651545
aF80.94221274912718
aF41.27035286750922
aF50.53099840988159
aF36.538894381787195
aF57.1432198657036
aF80.21908313491244
aF77.21115470590044
aF76.32755888952941
aF69.79839327373841
aF75.6776527817338
aF75.51702130784045
aF62.27648980805364
aF35.718554401418544
aF48.20301358527619
aF52.42553525829574
aF55.72822094130239
aF32.40597555019032
aF85.22363076694947
aF78.93420971638699
aF62.7761682073184
aF68.53819017573264
aF68.7602822186429
aF32.52103302037
aF53.47923500532718
aF57.23409533575658
aF70.31115052180519
aF46.6494302950195
aF74.39726949401546
aF32.733738484453504
aF76.12814434731209
aF36.38832833249499
aF50.636436317120456
aF31.291062796441366
aF39.94656789320578
aF43.1513360630994
aF78.64715836120993
aF40.52982621373495
aF77.71822200244412
aF78.34914489945044
aF87.62357554351314
aF88.01528347709096
aF73.75774308136985
aF43.30378227872099
aF44.408089766892466
aF43.434790090039954
aF31.491281457461753
aF37.66505849975148
aF66.86391459877615
aF37.059170656919804
aF71.65887880011266
aF76.2831666747959
aF87.3690958779909
aF53.092501136335436
aF53.79672193200582
aF65.18848659723264
aF37.85829764541043
aF62.80636573950787
aF53.20935939370223
aF77.67573038411881
aF78.82976303797716
aF87.7109977602064
aF39.45128898359288
aF61.409791856081696
aF57.09878878898164
aF46.51318503373472
aF87.17708669225604
aF55.59636195049248
aF65.67614305372553
aF60.224603294331175
aF60.48528978407002
aF45.812281537862646
aF88.07082031132643
aF60.362030032028436
aF60.21512414043879
aF63.581040384046176
aF56.05506369742167
aF32.90132621421137
aF89.54268241136032
aF57.36407204557001
aF49.23370013890527
aF54.60127068862753
aF76.31685515403747
aF61.47519899901877
aF50.25213253790493
aF56.037107047697816
aF44.26182420511725
aF34.479117039196524
aF55.24765363491563
aF59.90524904360498
aF65.98800821075208
aF34.315401463280786
aF81.14864686626993
aF53.52543144421787
aF77.33925430236673
aF81.05232929208253
aF72.23966759571944
aF47.52867149279119
aF58.8853017035474
aF86.79983133619467
aF69.73990292330873
aF64.69526467409142
aF76.76464138171505
aF69.16674187965071
aF56.64989678883001
aF47.84952658710892
aF34.00885891507778
aF52.722855009012804
aF51.02968695005826
aF65.48301400461297
aF55.67037374549288
aF88.92139906173816
aF78.97527659010001
aF55.08064158637574
aF53.07207839610227
aF59.14154178888349
aF85.7712662040928
aF61.91307434417939
aF72.88746193492742
aF50.58422760412823
aF59.18875096865243
aF84.35237036428163
aF48.09893070885964
aF63.08710078550955
aF60.14073782057942
aF51.43841769784463
aF55.43830857528368
aF53.933264924650814
aF46.94480229454595
aF35.342012071998
aF65.56070891693423
aF42.203771227703946
aF70.19998696819096
aF86.48586508419535
aF32.300185210170056
aF71.05866908907952
aF79.78938895293392
aF59.331240245548074
aF83.01357170565768
aF30.656226851704947
aF89.74257721644017
aF44.357095521070704
aF53.446573388716274
aF72.56748942213704
aF53.294349560379004
aF79.94097962112548
aF68.21003259106745
aF67.49925634957594
aF79.38324262886249
aF73.34944022209226
aF73.98273528098696
aF54.74518726684356
aF85.4814233861543
aF57.578093399136804
aF59.70412067471107
aF41.98146363140672
aF62.39814882666705
aF46.95518639212601
aF64.27739298959625
aF75.32940365315008
aF40.96100493789771
aF37.31804613515112
aF55.41272080037899
aF55.509510640931886
aF75.05621002116843
aF65.47756640463473
aF83.07314498959785
aF73.20836429586528
aF70.23973980359307
aF59.76282045218926
aF67.62054725528205
aF58.19380735322211
aF59.8408851237851
aF76.3886106668951
aF56.09120266304474
aF88.92606031783147
aF31.93044270608185
aF86.37472020888221
aF54.893498203723865
aF82.36523888178436
aF73.61501553394896
aF61.539004291400715
aF77.24215702481223
aF60.749611264684404
aF89.15104300603215
aF61.1213577562324
aF87.4714794675196
aF33.82163652016642
aF67.12284747015624
aF80.39269426232232
aF72.17354329399728
aF79.0348109933702
aF70.73232171015002
aF88.8395513103083
aF83.38336625497246
aF68.21298130109706
aF78.0030872934776
aF38.19877331254099
aF74.92975143954911
aF74.60837799878968
aF82.04422982490529
aF51.640350402011585
aF45.24357287800872
aF57.91954136359467
aF79.75273621421587
aF70.03942092978431
aF71.5173093659397
aF69.62896553356303
aF65.74073529178722
aF57.97510048267628
aF71.74096662756034
aF56.480651672884804
aF65.64817438761847
aF45.32385894183905
aF57.188728005302224
aF71.06378471761596
aF62.531725290896176
aF70.38996604833214
aF62.40124346484494
aF57.99280801600798
aF60.048455345686875
aF67.82122799341191
aF53.7043497573239
aF72.3850697257185
aF77.04130558090262
aF87.00912648012816
aF77.99579934510123
aF79.28281507484509
aF52.045091344554066
aF58.177404040788055
aF77.850108734494
aF56.282962311603626
aF86.87399450736726
aF86.63319659389163
aF38.25867974241538
aF53.397032082854636
aF52.4140133218923
aF68.88099944658819
aF83.372475141362
aF53.72269494125906
aF87.69104854414448
aF80.86890197966875
aF66.35428642349007
aF59.020302357565726
aF81.62158478725667
aF61.05443183298256
aF81.70169120439081
aF52.72757803803397
aF77.1098617153279
aF81.77024798435593
aF79.97186414062826
aF65.19173054869493
aF81.18235776395383
aF88.99135192402514
aF74.0209392319718
aF31.449635892873196
aF59.66291255972449
aF73.91420817015327
aF81.22975215635003
aF61.4856814275146
aF31.294430231302158
aF89.33917107548405
aF62.06349853369636
aF85.40634161237912
aF80.81329700936709
aF60.01605578315211
aF85.88629403272806
aF86.99372017174497
aF62.27240563726344
aF50.2404499531129
aF72.3083767736158
aF81.01489738726863
aF56.46839601303331
aF64.09574937659414
aF89.49141345930613
aF55.86147606514497
aF31.04449756562424
aF64.89359956497547
aF68.62516055998961
aF89.93807486197143
aF51.125659363642555
aF54.908551635559476
aF75.17208815362922
aF81.3647831742353
aF67.06725094066755
aF78.13720801565736
aF55.099747145642965
aF80.0317365885904
aF52.971828494478544
aF59.31141323021802
aF82.92654861572186
aF89.0897051699121
aF41.38778836970509
aF56.72489562412131
aF59.94200995753833
aF64.41927184879137
aF52.26790184392645
aF45.2140112878078
aF82.32664032944959
aF76.27959569799587
aF72.53656020573011
aF60.17892937324649
aF58.91318076391231
aF78.25426977550718
aF61.16706681825158
aF63.722690986634404
aF59.63280944096853
aF40.50637290448318
aF82.03354792507265
aaa(lp3
cnumpy.core.multiarray
scalar
p4
(cnumpy
dtype
p5
(S'f8'
p6
I0
I1
tp7
Rp8
(I3
S'<'
p9
NNNI-1
I-1
I0
tp10
bS'gk\xc7S\x8f\xf9\xb8\xc0'
p11
tp12
Rp13
aa(lp14
(lp15
(lp16
g4
(g8
S'L\xd1E~}\xed\xb6@'
p17
tp18
Rp19
aI0
aa(lp20
g4
(g8
S'\x90i\x05{\xa6+\xae@'
p21
tp22
Rp23
aI0
aa(lp24
g4
(g8
S'<\xfd\x93y\xe6?\xa3@'
p25
tp26
Rp27
aI0
aa(lp28
g4
(g8
S'\x00\x08#^\xed2i@'
p29
tp30
Rp31
aI0
aa(lp32
g4
(g8
S'0\xb09\x1eX\xafp\xc0'
p33
tp34
Rp35
aI0
aa(lp36
g4
(g8
S'\x90\x00\xc7C\xd9\xbfp\xc0'
p37
tp38
Rp39
aI0
aa(lp40
g4
(g8
S'\xd8dF\xa7YH\x89\xc0'
p41
tp42
Rp43
aI0
aa(lp44
g4
(g8
S'\xd8:\x01\x83\x88w\x8d\xc0'
p45
tp46
Rp47
aI0
aa(lp48
g4
(g8
S'\x18\x13\xba\\\x8cw\x8d\xc0'
p49
tp50
Rp51
aI82
aa(lp52
g4
(g8
S'X\x0e_\xc1_\xa4\x8f\xc0'
p53
tp54
Rp55
aI277
aa(lp56
g4
(g8
S'h(|\xafe\xb8\x8f\xc0'
p57
tp58
Rp59
aI334
aa(lp60
g4
(g8
S'\xb0\x10%\xda@\x84\x91\xc0'
p61
tp62
Rp63
aI433
aa(lp64
g4
(g8
S'\xe4V\x1bs[\xe0\x9c\xc0'
p65
tp66
Rp67
aI447
aa(lp68
g4
(g8
S"\x885A\xf2'\xf3\x9c\xc0"
p69
tp70
Rp71
aI512
aa(lp72
g4
(g8
S't%\x13\xc3\xfd\xfa\x9c\xc0'
p73
tp74
Rp75
aI677
aa(lp76
g4
(g8
S'\\\xcb\xbfvf1\x9d\xc0'
p77
tp78
Rp79
aI707
aa(lp80
g4
(g8
S'$1\xd0\xf8W\xba\x9d\xc0'
p81
tp82
Rp83
aI874
aa(lp84
g4
(g8
S'\x8cy\xac\xabT\xda\x9d\xc0'
p85
tp86
Rp87
aI916
aa(lp88
g4
(g8
S'\xf0\xfe\t#\xc8\xef\x9d\xc0'
p89
tp90
Rp91
aI956
aa(lp92
g4
(g8
S'\xc8i\x8c\x9e\x91\xca\x9e\xc0'
p93
tp94
Rp95
aI1256
aa(lp96
g4
(g8
S'D\xe3\xe0\xbc\xd1\xce\x9e\xc0'
p97
tp98
Rp99
aI1421
aa(lp100
g4
(g8
S'Lz\x9eH=\xdb\x9e\xc0'
p101
tp102
Rp103
aI1462
aa(lp104
g4
(g8
S'\x94\xe1\xd3\xbe\\\xe4\x9e\xc0'
p105
tp106
Rp107
aI1564
aa(lp108
g4
(g8
S'\xdc\xca\xf4\xc7\x96\xe4\x9e\xc0'
p109
tp110
Rp111
aI1605
aa(lp112
g4
(g8
S'\xb8\xb0\xbf\x8f\xa3\x8c\x9f\xc0'
p113
tp114
Rp115
aI1610
aa(lp116
g4
(g8
S'<A\x12\x1a\xfb\x15\xa0\xc0'
p117
tp118
Rp119
aI1789
aa(lp120
g4
(g8
S'\xe4\x1a%\x93x\x18\xa0\xc0'
p121
tp122
Rp123
aI1941
aa(lp124
g4
(g8
S'Z \xfd/\xf4\x1f\xa0\xc0'
p125
tp126
Rp127
aI2028
aa(lp128
g4
(g8
S'\x84t\x0bR\xc2\x81\xa0\xc0'
p129
tp130
Rp131
aI2191
aa(lp132
g4
(g8
S'\x16H\x7f\x11\x9c\x83\xa0\xc0'
p133
tp134
Rp135
aI2206
aa(lp136
g4
(g8
S'\xac?rX\x86\x97\xa0\xc0'
p137
tp138
Rp139
aI2328
aa(lp140
g4
(g8
S'\x18I\xa0\xe4\xec9\xa1\xc0'
p141
tp142
Rp143
aI2376
aa(lp144
g4
(g8
S'\xae\xb8\xe5)\xd5\xa7\xa1\xc0'
p145
tp146
Rp147
aI2399
aa(lp148
g4
(g8
S'j^,&\xa5\xb7\xa1\xc0'
p149
tp150
Rp151
aI2618
aa(lp152
g4
(g8
S'H\xac\x7fT\x01\xf0\xa2\xc0'
p153
tp154
Rp155
aI2652
aa(lp156
g4
(g8
S'\xf0\xaf\xc7\x19qN\xa3\xc0'
p157
tp158
Rp159
aI2828
aa(lp160
g4
(g8
S'\xd6\xa3\x12\x87$\x90\xa4\xc0'
p161
tp162
Rp163
aI2955
aa(lp164
g4
(g8
S'\xb2\xa6\x19\xb0\xaf\x94\xa4\xc0'
p165
tp166
Rp167
aI3026
aa(lp168
g4
(g8
S'\xdco%\xbd\xea\x9a\xa4\xc0'
p169
tp170
Rp171
aI3036
aa(lp172
g4
(g8
S'8\xa3=\x12\xdd\xb2\xa4\xc0'
p173
tp174
Rp175
aI3144
aa(lp176
g4
(g8
S'\xc4\x1c\xf5c\xd9v\xa5\xc0'
p177
tp178
Rp179
aI3228
aa(lp180
g4
(g8
S'0\x189\x8d\x05\xad\xa5\xc0'
p181
tp182
Rp183
aI3307
aa(lp184
g4
(g8
S'\x18\xb6\xd1\x01\xb4\xd8\xa5\xc0'
p185
tp186
Rp187
aI3415
aa(lp188
g4
(g8
S'dX\x07\xac\xf7\xe9\xa5\xc0'
p189
tp190
Rp191
aI3482
aa(lp192
g4
(g8
S'\xc0:\xaa\r\x1f+\xa9\xc0'
p193
tp194
Rp195
aI3544
aa(lp196
g4
(g8
S'>t1\xf6;/\xa9\xc0'
p197
tp198
Rp199
aI3811
aa(lp200
g4
(g8
S'\xa4nL3\xf3w\xa9\xc0'
p201
tp202
Rp203
aI3991
aa(lp204
g4
(g8
S'\xeey9\xade|\xa9\xc0'
p205
tp206
Rp207
aI4026
aa(lp208
g4
(g8
S'\xccvdz\xde\x97\xa9\xc0'
p209
tp210
Rp211
aI4273
aa(lp212
g4
(g8
S'\xb9\xc9\xba\xd5\xf4\x15\xaa\xc0'
p213
tp214
Rp215
aI4288
aa(lp216
g4
(g8
S'\xc1\xf8$\xd5|\x1a\xaa\xc0'
p217
tp218
Rp219
aI4331
aa(lp220
g4
(g8
S'\x9f\x91\x06J\xe6\x1b\xaa\xc0'
p221
tp222
Rp223
aI4451
aa(lp224
g4
(g8
S'\xad\xd7\x8d\xc0\xf0*\xaa\xc0'
p225
tp226
Rp227
aI4480
aa(lp228
g4
(g8
S':9\\W\xb0\xfc\xaa\xc0'
p229
tp230
Rp231
aI4621
aa(lp232
g4
(g8
S'2\x16\xc4@q\x04\xab\xc0'
p233
tp234
Rp235
aI4642
aa(lp236
g4
(g8
S'\xe9\xbc\xb2\xe3\x84\x88\xab\xc0'
p237
tp238
Rp239
aI4735
aa(lp240
g4
(g8
S'\xb2\x93\x8c\x87\xba\xa2\xab\xc0'
p241
tp242
Rp243
aI4821
aa(lp244
g4
(g8
S'\x11x\xcbT\x1a\xa6\xab\xc0'
p245
tp246
Rp247
aI4847
aa(lp248
g4
(g8
S'Z\xb4\xd0p\x7f\xc4\xab\xc0'
p249
tp250
Rp251
aI4970
aa(lp252
g4
(g8
S'\xa7\x00[W\x1d\xca\xab\xc0'
p253
tp254
Rp255
aI5186
aa(lp256
g4
(g8
S'\xa7\xe9\x0fE\xd6\x1e\xac\xc0'
p257
tp258
Rp259
aI5276
aa(lp260
g4
(g8
S'\xa9\x14\xd5\xf6-\x1f\xac\xc0'
p261
tp262
Rp263
aI5378
aa(lp264
g4
(g8
S'\x9b_\x123\x026\xac\xc0'
p265
tp266
Rp267
aI5432
aa(lp268
g4
(g8
S'6\xc9-X\xf8g\xac\xc0'
p269
tp270
Rp271
aI5458
aa(lp272
g4
(g8
S'\xfaL~\xa5W\xcd\xac\xc0'
p273
tp274
Rp275
aI5578
aa(lp276
g4
(g8
S'y`*\xa7\x9f\xff\xac\xc0'
p277
tp278
Rp279
aI5672
aa(lp280
g4
(g8
S'\xe0Y\xc9\xf4\x88\x05\xad\xc0'
p281
tp282
Rp283
aI5798
aa(lp284
g4
(g8
S'\xacj\x9eQ\x89\x05\xad\xc0'
p285
tp286
Rp287
aI5884
aa(lp288
g4
(g8
S'\xc4\xde\xf0;\xefu\xad\xc0'
p289
tp290
Rp291
aI5946
aa(lp292
g4
(g8
S'\xdb\xa9?\x02 8\xae\xc0'
p293
tp294
Rp295
aI6058
aa(lp296
g4
(g8
S'\xc5}\x8a\xc3\xccA\xae\xc0'
p297
tp298
Rp299
aI6331
aa(lp300
g4
(g8
S'\xf3\xe8z-"_\xae\xc0'
p301
tp302
Rp303
aI6338
aa(lp304
g4
(g8
S'\xbb\xb6y\xc7Ku\xae\xc0'
p305
tp306
Rp307
aI6373
aa(lp308
g4
(g8
S'\xe3 \xd2i\xf6\xad\xae\xc0'
p309
tp310
Rp311
aI6704
aa(lp312
g4
(g8
S'\xdf\xcez\x13\xa9V\xaf\xc0'
p313
tp314
Rp315
aI6721
aa(lp316
g4
(g8
S'\x87\x159\x85ug\xaf\xc0'
p317
tp318
Rp319
aI6806
aa(lp320
g4
(g8
S'Lbq\x8f\x9d\xb8\xaf\xc0'
p321
tp322
Rp323
aI6990
aa(lp324
g4
(g8
S'\xa9{0az\xd5\xaf\xc0'
p325
tp326
Rp327
aI7278
aa(lp328
g4
(g8
S'\xd2\xeer\x9d\xca\x1a\xb0\xc0'
p329
tp330
Rp331
aI7477
aa(lp332
g4
(g8
S'/\xca1c@\x1c\xb0\xc0'
p333
tp334
Rp335
aI7538
aa(lp336
g4
(g8
S'\xfcH\xbe\x80@)\xb0\xc0'
p337
tp338
Rp339
aI7628
aa(lp340
g4
(g8
S'\xa0n\xef1C\xae\xb0\xc0'
p341
tp342
Rp343
aI7629
aa(lp344
g4
(g8
S'\xf6P\xbc\x9f\xdc\xaf\xb0\xc0'
p345
tp346
Rp347
aI7802
aa(lp348
g4
(g8
S'\xd0\xe1\x88Kf\xcd\xb0\xc0'
p349
tp350
Rp351
aI7927
aa(lp352
g4
(g8
S'\x14\x85e7d\x12\xb1\xc0'
p353
tp354
Rp355
aI7941
aa(lp356
g4
(g8
S'\xe3\xa4\x88\xe8\xad\x12\xb1\xc0'
p357
tp358
Rp359
aI8066
aa(lp360
g4
(g8
S':\n\x1e\xbb\xce\x18\xb1\xc0'
p361
tp362
Rp363
aI8081
aa(lp364
g4
(g8
S'\xeax\xd3\xf9\x81,\xb1\xc0'
p365
tp366
Rp367
aI8097
aa(lp368
g4
(g8
S'\xc3\xc9\x88\x0b`>\xb1\xc0'
p369
tp370
Rp371
aI8252
aa(lp372
g4
(g8
S':\x18{Q\xafD\xb1\xc0'
p373
tp374
Rp375
aI8269
aa(lp376
g4
(g8
S'\xf1\xf6\x15\x81>\x90\xb1\xc0'
p377
tp378
Rp379
aI8577
aa(lp380
g4
(g8
S'\n\xfa\xab\x9e\xbc\xa7\xb1\xc0'
p381
tp382
Rp383
aI8851
aa(lp384
g4
(g8
S'\x17\xe8\x8c\x9e\xb5\xc5\xb1\xc0'
p385
tp386
Rp387
aI8856
aa(lp388
g4
(g8
S'\xe2\xfa\xe9\xea\xb5\xc5\xb1\xc0'
p389
tp390
Rp391
aI9179
aa(lp392
g4
(g8
S'0\xdft|\xae\xc6\xb1\xc0'
p393
tp394
Rp395
aI9181
aa(lp396
g4
(g8
S'\xfc\x17\xef\xf4P\xcd\xb1\xc0'
p397
tp398
Rp399
aI9200
aa(lp400
g4
(g8
S'\x82p\x97=#\xd0\xb1\xc0'
p401
tp402
Rp403
aI9393
aa(lp404
g4
(g8
S'\x96Lh\x83\xbf\xdb\xb1\xc0'
p405
tp406
Rp407
aI9417
aa(lp408
g4
(g8
S'\xc1N\xe2\xdcP\xe5\xb1\xc0'
p409
tp410
Rp411
aI9563
aa(lp412
g4
(g8
S'f\xf8\x8f\x8b\x04\xea\xb1\xc0'
p413
tp414
Rp415
aI9624
aa(lp416
g4
(g8
S'R\xe8\x11\xe9c\xed\xb1\xc0'
p417
tp418
Rp419
aI9654
aa(lp420
g4
(g8
S'\xec`V\x82\xd7\x04\xb2\xc0'
p421
tp422
Rp423
aI9725
aa(lp424
g4
(g8
S'\xa8\x89]\xe49\\\xb2\xc0'
p425
tp426
Rp427
aI9783
aa(lp428
g4
(g8
S'PU\x18S:\\\xb2\xc0'
p429
tp430
Rp431
aI10130
aa(lp432
g4
(g8
S'\xf0\xb1\xae\xaa\xae\xe8\xb2\xc0'
p433
tp434
Rp435
aI10185
aa(lp436
g4
(g8
S'\xdb}\x00Wt\xea\xb2\xc0'
p437
tp438
Rp439
aI10325
aa(lp440
g4
(g8
S'"\x93\x98\x80\x87\xeb\xb2\xc0'
p441
tp442
Rp443
aI10386
aa(lp444
g4
(g8
S' e\xb7lO\x7f\xb3\xc0'
p445
tp446
Rp447
aI10467
aa(lp448
g4
(g8
S'\xd0\xe6\x1d\x9aP\x7f\xb3\xc0'
p449
tp450
Rp451
aI10721
aa(lp452
g4
(g8
S'\x96g\xeb/\xdc\x85\xb3\xc0'
p453
tp454
Rp455
aI10738
aa(lp456
g4
(g8
S'\xab\xce\xd4i\xc8\x89\xb3\xc0'
p457
tp458
Rp459
aI10815
aa(lp460
g4
(g8
S'\xe4Ih\xa2\xd3\xa8\xb3\xc0'
p461
tp462
Rp463
aI11053
aa(lp464
g4
(g8
S'\n-\xcb\xba\x8e\xb9\xb3\xc0'
p465
tp466
Rp467
aI11451
aa(lp468
g4
(g8
S'Z\r\x8f\xb9\xb6\xc0\xb3\xc0'
p469
tp470
Rp471
aI11775
aa(lp472
g4
(g8
S'6I\xf4Gy)\xb4\xc0'
p473
tp474
Rp475
aI11787
aa(lp476
g4
(g8
S'\xe8\xf5\xa6v})\xb4\xc0'
p477
tp478
Rp479
aI11823
aa(lp480
g4
(g8
S'\xdf\x11S\xd1T+\xb4\xc0'
p481
tp482
Rp483
aI11889
aa(lp484
g4
(g8
S'\x9a\xd2H7\x8a\x84\xb4\xc0'
p485
tp486
Rp487
aI12046
aa(lp488
g4
(g8
S'\x92\x84w\xd1\x14\x85\xb4\xc0'
p489
tp490
Rp491
aI12133
aa(lp492
g4
(g8
S'\x15u\x13\x06\x15\x85\xb4\xc0'
p493
tp494
Rp495
aI12149
aa(lp496
g4
(g8
S'\xf8j\x8b5\x85\x93\xb4\xc0'
p497
tp498
Rp499
aI12293
aa(lp500
g4
(g8
S"\xde\xb4'L\xa9b\xb5\xc0"
p501
tp502
Rp503
aI12368
aa(lp504
g4
(g8
S'\xea\x11\xce\xf5\xf2\xac\xb5\xc0'
p505
tp506
Rp507
aI12715
aa(lp508
g4
(g8
S'\xfa\nA\xc8\xf6\xb5\xb5\xc0'
p509
tp510
Rp511
aI12934
aa(lp512
g4
(g8
S'\xbeX5\xec\xb8\xb7\xb5\xc0'
p513
tp514
Rp515
aI13204
aa(lp516
g4
(g8
S'Ho\xb8\xb9\xb9\xb7\xb5\xc0'
p517
tp518
Rp519
aI13313
aa(lp520
g4
(g8
S'\x04\x8e\xf6\x96\xf1\xd1\xb5\xc0'
p521
tp522
Rp523
aI13347
aa(lp524
g4
(g8
S'\x08q\xe5\xad\xff\xd1\xb5\xc0'
p525
tp526
Rp527
aI13457
aa(lp528
g4
(g8
S'\x80\xdbG\x8c\x01\xd2\xb5\xc0'
p529
tp530
Rp531
aI13532
aa(lp532
g4
(g8
S'1\xee9\xb7X\xd5\xb5\xc0'
p533
tp534
Rp535
aI13553
aa(lp536
g4
(g8
S'\xa3\xc9\x04\xd8\xbf\xdd\xb5\xc0'
p537
tp538
Rp539
aI13615
aa(lp540
g4
(g8
S'N{\xaf\xcdF%\xb6\xc0'
p541
tp542
Rp543
aI13622
aa(lp544
g4
(g8
S"\xd2\xea'(R%\xb6\xc0"
p545
tp546
Rp547
aI13770
aa(lp548
g4
(g8
S"\x1e\x07\xceN\x05'\xb6\xc0"
p549
tp550
Rp551
aI13831
aa(lp552
g4
(g8
S'kiq:Li\xb6\xc0'
p553
tp554
Rp555
aI14082
aa(lp556
g4
(g8
S'\xa3\xdc\xa4\xb6\xebs\xb6\xc0'
p557
tp558
Rp559
aI14415
aa(lp560
g4
(g8
S'X\nP+\xc7\x8a\xb6\xc0'
p561
tp562
Rp563
aI14416
aa(lp564
g4
(g8
S'>)\x9fk\xc7\x8a\xb6\xc0'
p565
tp566
Rp567
aI14456
aa(lp568
g4
(g8
S'\xbd\x85$\xac4\x8c\xb6\xc0'
p569
tp570
Rp571
aI14559
aa(lp572
g4
(g8
S'\xf0V\n\xddM\x8e\xb6\xc0'
p573
tp574
Rp575
aI14768
aa(lp576
g4
(g8
S'\xb1T{:g\x8e\xb6\xc0'
p577
tp578
Rp579
aI14844
aa(lp580
g4
(g8
S'&/\x05\x1ev\x8e\xb6\xc0'
p581
tp582
Rp583
aI14929
aa(lp584
g4
(g8
S'.\xa9?\xeb^\x90\xb6\xc0'
p585
tp586
Rp587
aI15001
aa(lp588
g4
(g8
S'pgZFx\x90\xb6\xc0'
p589
tp590
Rp591
aI15016
aa(lp592
g4
(g8
S'6\x1e_\xa0\x1b\xce\xb6\xc0'
p593
tp594
Rp595
aI15082
aa(lp596
g4
(g8
S'\xf1Y\xa1\xe7\x8b\xd8\xb6\xc0'
p597
tp598
Rp599
aI15104
aa(lp600
g4
(g8
S'\x84\xb0\xc3\x84\xca\x17\xb7\xc0'
p601
tp602
Rp603
aI15219
aa(lp604
g4
(g8
S'a]\x1b\xc0X*\xb7\xc0'
p605
tp606
Rp607
aI15438
aa(lp608
g4
(g8
S'&\x13\x96\xe6$2\xb7\xc0'
p609
tp610
Rp611
aI15507
aa(lp612
g4
(g8
S'%O\xd6W\xb23\xb7\xc0'
p613
tp614
Rp615
aI15522
aa(lp616
g4
(g8
S'\xb8L\xb0o\xb33\xb7\xc0'
p617
tp618
Rp619
aI15679
aa(lp620
g4
(g8
S';\xb7k\x11\xb24\xb7\xc0'
p621
tp622
Rp623
aI15782
aa(lp624
g4
(g8
S'\x14\xa0\xc8*\xb4:\xb7\xc0'
p625
tp626
Rp627
aI15927
aa(lp628
g4
(g8
S's\xaa\xccA\xb4:\xb7\xc0'
p629
tp630
Rp631
aI16043
aa(lp632
g4
(g8
S'\xae|o\x98\x18{\xb7\xc0'
p633
tp634
Rp635
aI16326
aa(lp636
g4
(g8
S'\xb51-d\xf9\x94\xb7\xc0'
p637
tp638
Rp639
aI16595
aa(lp640
g4
(g8
S'W\x9d\xf3{\x89\xdb\xb7\xc0'
p641
tp642
Rp643
aI16646
aa(lp644
g4
(g8
S'C\xd2\xf43T\xdf\xb7\xc0'
p645
tp646
Rp647
aI16715
aa(lp648
g4
(g8
S'=\x04]\xf5\x80\xe0\xb7\xc0'
p649
tp650
Rp651
aI16882
aa(lp652
g4
(g8
S'\xfc\x9d\xaa\x15\x81\xe0\xb7\xc0'
p653
tp654
Rp655
aI17056
aa(lp656
g4
(g8
S'\xe3\x00-\xf6d\xe2\xb7\xc0'
p657
tp658
Rp659
aI17138
aa(lp660
g4
(g8
S'\xbcO\x8c\xa8&\xe5\xb7\xc0'
p661
tp662
Rp663
aI17187
aa(lp664
g4
(g8
S'\xf3\x05\x8fxs\x0e\xb8\xc0'
p665
tp666
Rp667
aI17189
aa(lp668
g4
(g8
S'\xad\xa9\x8e6\xf0\x1d\xb8\xc0'
p669
tp670
Rp671
aI17726
aa(lp672
g4
(g8
S'\x8c\xbf\x19\xa6Z#\xb8\xc0'
p673
tp674
Rp675
aI17849
aa(lp676
g4
(g8
S'$\xc7\x16\xfa\xf4.\xb8\xc0'
p677
tp678
Rp679
aI17859
aa(lp680
g4
(g8
S'\xc6\xc2d\x89\x0b/\xb8\xc0'
p681
tp682
Rp683
aI17947
aa(lp684
g4
(g8
S'\xfa\x1dF\xcc\xd56\xb8\xc0'
p685
tp686
Rp687
aI18035
aa(lp688
g4
(g8
S'\x14\xfb\x9cz\xe8E\xb8\xc0'
p689
tp690
Rp691
aI18075
aa(lp692
g4
(g8
S'\xd1z\xd2\xa46I\xb8\xc0'
p693
tp694
Rp695
aI18104
aa(lp696
g4
(g8
S'\xf4W\xf3\xafW|\xb8\xc0'
p697
tp698
Rp699
aI18203
aa(lp700
g4
(g8
S'\xd2\x96\xd2\xfa\xab\x80\xb8\xc0'
p701
tp702
Rp703
aI18264
aa(lp704
g4
(g8
S'b\xae\xc4\xce\x03\xa5\xb8\xc0'
p705
tp706
Rp707
aI18482
aa(lp708
g4
(g8
S'\x90\xe3\xfe\xb8\x06\xa5\xb8\xc0'
p709
tp710
Rp711
aI18543
aa(lp712
g4
(g8
S'p\xa9\xb0k!\xb2\xb8\xc0'
p713
tp714
Rp715
aI18680
aa(lp716
g4
(g8
S'\x9b\x86\x8b\xdf\x8e\xbe\xb8\xc0'
p717
tp718
Rp719
aI18709
aa(lp720
g4
(g8
S'\x95\x88"V\x16\xc7\xb8\xc0'
p721
tp722
Rp723
aI19042
aa(lp724
g4
(g8
S'\x92S\x7f\xe3\xbd\xce\xb8\xc0'
p725
tp726
Rp727
aI19239
aa(lp728
g4
(g8
S'\xe6\xb0\x86\xba`\xcf\xb8\xc0'
p729
tp730
Rp731
aI19407
aa(lp732
g4
(g8
S'\x83HY\xa0\xfe\xdb\xb8\xc0'
p733
tp734
Rp735
aI19439
aa(lp736
g4
(g8
S'\xd4e\xae\x8d\x08\xe5\xb8\xc0'
p737
tp738
Rp739
aI19563
aa(lp740
g4
(g8
S'\xb0\xe2\x121V\xea\xb8\xc0'
p741
tp742
Rp743
aI19873
aa(lp744
g13
aI19982
aaaa.