(lp0
(lp1
(lp2
F57.45467449216011
aF45.26555629610996
aF33.08065322740188
aF75.8176640697626
aF87.60135191753142
aF81.78689736667646
aF41.85743017404927
aF59.94992291314647
aF61.00522814430881
aF51.347201688301425
aF51.050026385586776
aF39.54957191009048
aF40.27150171239772
aF63.46791598991531
aF73.7816360010345
aF54.36913282475889
aF35.21399055318702
aF75.85769927918345
aF74.00795689784982
aF39.186872807243454
aF53.97950197557884
aF47.65625709251614
aF43.32313591200081
aF65.18969603271358
aF48.296243552723496
aF78.3377118789771
aF81.88499614401724
aF64.34069613641105
aF62.73067931393806
aF47.805050338796434
aF30.521864583421035
aF66.36863595191268
aF54.1915935494217
aF63.02546750481865
aF53.51197075217394
aF72.35151141179705
aF86.96250592122283
aF47.68998017443341
aF57.90458401428987
aF69.66831361637591
aF30.638074665101485
aF38.24707647279154
aF41.38829051023104
aF38.95696973716032
aF53.28987821269147
aF42.640360350845995
aF71.83682987066985
aF87.02035914083852
aF85.99987776091321
aF70.13932962227157
aF37.48118322353774
aF52.411782310191136
aF77.07927401042836
aF65.39433778918436
aF49.719373158888324
aF60.38993825535826
aF83.60345976880657
aF69.76892853777319
aF73.21585564061644
aF77.77450768045888
aF46.66984594601257
aF57.09401806928254
aF49.8267804176883
aF61.084437788962276
aF34.2560205862351
aF42.218019255081956
aF62.30181278128036
aF55.73764862251015
aF39.56439603594939
aF50.75707895916952
aF58.333022159373606
aF74.68363415934766
aF44.434079679923755
aF41.16628526326537
aF50.30162817565347
aF35.69139101533371
aF45.548180994162195
aF82.01525258477639
aF72.01635474171235
aF39.862098276623236
aF51.023247696338224
aF87.62128317696965
aF53.217671298866364
aF59.8733362534422
aF51.37401332228468
aF60.5372243623576
aF68.90020643478596
aF58.580860464531014
aF70.4264516918038
aF66.3586883002106
aF71.18000561880757
aF77.29131030407426
aF67.09524169578586
aF33.79650897471843
aF35.82549791553132
aF38.21486469090678
aF50.57264457090589
aF64.16769748472183
aF74.63513278371465
aF83.13068145214177
aF53.41746920420799
aF58.490075597089785
aF56.45339912451996
aF53.27393555442826
aF33.635199083822414
aF55.016210927067576
aF69.26186515175033
aF59.913880928970045
aF63.558485763270426
aF75.59013356533796
aF69.92488056453617
aF60.60656612758587
aF50.08235921475813
aF57.65494174890581
aF34.27571464353609
aF62.87817531723823
aF44.04766252792072
aF57.66734587665806
aF68.89903568386389
aF70.14001078987332
aF87.30473043778068
aF49.67318217463411
aF47.69724587384137
aF60.52798846585294
aF72.9670271733201
aF37.581853015656726
aF54.560786021701844
aF68.02088621161795
aF50.357643776679566
aF52.64735249338936
aF69.29534346915652
aF84.97948433931731
aF87.91450395494158
aF58.17744138782622
aF75.25517890041777
aF70.52703392549975
aF76.01407289004466
aF35.698490497272935
aF78.21350536012022
aF57.18878379347106
aF44.71251545356972
aF89.0622840027706
aF59.25994989477065
aF70.47466886314618
aF55.74266353632593
aF37.02799869625699
aF52.08706195521617
aF67.2356756979183
aF50.8966639919049
aF39.32670244324658
aF74.90953124611244
aF67.70895040721824
aF53.50745885854203
aF64.81319051361173
aF40.996507062461504
aF85.00010538565289
aF37.156313694902224
aF52.81739885222154
aF74.12004526184822
aF53.552414586473475
aF71.24579659720584
aF59.19605978587525
aF32.10125234485738
aF53.71192857285224
aF62.32406932372265
aF67.99892314028611
aF33.247602653897
aF53.3238799431756
aF78.71888131285519
aF81.43736571708027
aF77.86617042413533
aF73.51909693586082
aF87.10131673995534
aF82.69664203406349
aF68.96254354623936
aF87.23185375721378
aF69.39028717892816
aF36.02361923245144
aF33.437718302993396
aF58.35260629744991
aF36.6340077688036
aF60.867521669082464
aF67.82620142008024
aF86.08996939420527
aF48.95468729782148
aF68.73984721396042
aF66.59365456356915
aF54.58510771345183
aF35.04940425464311
aF55.50669081823313
aF72.48303578878023
aF32.22209501697386
aF46.10999615598257
aF64.36039581901639
aF85.09572989465042
aF45.69057240172237
aF82.03838691836188
aF64.31945954058733
aF63.631795613513624
aF70.08739319265919
aF32.363126165246
aF77.18150316295352
aF59.347788401842195
aF76.47215553091442
aF78.27956490876876
aF65.4597956986453
aF85.23648100511971
aF70.02115729341614
aF83.63860775905042
aF75.5252469192911
aF85.49442765779702
aF80.88618722974317
aF85.20654511966713
aF80.03948687300777
aF48.90605347745772
aF77.96143885746504
aF59.109576046300276
aF85.80692357510046
aF83.8061686554434
aF38.484783591619404
aF88.32345462659282
aF59.31780381612556
aF55.579508071406536
aF50.78518272082978
aF59.867490905291206
aF71.95789541023744
aF67.31155841573813
aF30.447490278777067
aF79.65864890326
aF79.80195956397534
aF57.20851709800969
aF75.244593932691
aF88.00437448960147
aF68.38444986298828
aF56.652151862349385
aF39.19419838101811
aF85.51093919993147
aF57.616030736581905
aF70.78872914389314
aF62.395765395701325
aF48.76215776889548
aF72.7996338235252
aF77.92835828136417
aF57.96282435219966
aF73.88461260682384
aF60.0053526571711
aF77.65247815779766
aF54.07843228751793
aF84.0222695672054
aF68.84273139861588
aF78.32556123731199
aF61.201725048306145
aF55.22614760712669
aF84.85318286233485
aF86.17956792140015
aF89.98162584388152
aF41.2855424799521
aF85.4812139180841
aF80.14399455441603
aF66.44895793824578
aF61.044606239834025
aF50.568636508126275
aF64.94269017573413
aF89.27352871924674
aF64.09511867876141
aF63.55309115671953
aF73.35204161448357
aF75.36960049618072
aF83.70714307134546
aF70.05183073581955
aF68.17930671324304
aF62.759885111045364
aF77.3150052528538
aF65.66288382928829
aF74.66289969270719
aF84.74642770408417
aF74.15802854416759
aF55.94397927094232
aF74.33658347614892
aF76.29597044808314
aF86.5164635718852
aF81.44662714980413
aF59.591413667696614
aF68.12710864663117
aF85.52570806375716
aF79.5704826100884
aF87.78629764502273
aF69.0334854187192
aF79.7250819172767
aF88.37317318646959
aF81.22120255092565
aF57.444974052673956
aF81.18071901896457
aF65.46973812558493
aF77.90094673953979
aF76.64559094711225
aF70.9534556655585
aF53.34158959508434
aF66.7614919885949
aF50.16797036485069
aF50.39974921081165
aF72.79933577509885
aF55.53490462719894
aF50.5909145554721
aF73.38997982745896
aF78.77989740575228
aF71.5883021738046
aF82.96092387219662
aF54.102180880589046
aF53.55678713605728
aF50.07592202242898
aF54.54581484716488
aF54.981592960481365
aF86.40026492253924
aF81.38516934105695
aaa(lp3
cnumpy.core.multiarray
scalar
p4
(cnumpy
dtype
p5
(S'f8'
p6
I0
I1
tp7
Rp8
(I3
S'<'
p9
NNNI-1
I-1
I0
tp10
bS'\xb6\x18\x8aU\xdc\x13\xb7\xc0'
p11
tp12
Rp13
aa(lp14
(lp15
(lp16
g4
(g8
S'\xf4\xd3\x0f\x1a\xc3\x9a\xa1@'
p17
tp18
Rp19
aI0
aa(lp20
g4
(g8
S'h\xd1KY\x9d\xcd\x93@'
p21
tp22
Rp23
aI0
aa(lp24
g4
(g8
S'4W\xc1I5\x06\x91@'
p25
tp26
Rp27
aI0
aa(lp28
g4
(g8
S'\xc0M\xdb\x1bi\x1fw@'
p29
tp30
Rp31
aI0
aa(lp32
g4
(g8
S' \xe2\xc1\t2\xf1g@'
p33
tp34
Rp35
aI0
aa(lp36
g4
(g8
S'\x80\xdc\x08\xd7pdQ\xc0'
p37
tp38
Rp39
aI0
aa(lp40
g4
(g8
S'\x80R#\xe9\xd2\xfbS\xc0'
p41
tp42
Rp43
aI0
aa(lp44
g4
(g8
S'\xa0\xf7`\xc1\xba\x1c\x7f\xc0'
p45
tp46
Rp47
aI0
aa(lp48
g4
(g8
S'p\x15\xa28(\xd1\x80\xc0'
p49
tp50
Rp51
aI0
aa(lp52
g4
(g8
S'\x98a]\x0f\xb2\xd7\x81\xc0'
p53
tp54
Rp55
aI0
aa(lp56
g4
(g8
S'\xc8W\x845\xef\xbb\x83\xc0'
p57
tp58
Rp59
aI0
aa(lp60
g4
(g8
S'\xf0\xe7\xfe\xed+%\x8b\xc0'
p61
tp62
Rp63
aI0
aa(lp64
g4
(g8
S'\x0cc\x81\x9d8\x1b\x90\xc0'
p65
tp66
Rp67
aI0
aa(lp68
g4
(g8
S'\x98I\xa6\x80\xd60\x92\xc0'
p69
tp70
Rp71
aI0
aa(lp72
g4
(g8
S'\x10\xe6\x97\xf5d@\x92\xc0'
p73
tp74
Rp75
aI383
aa(lp76
g4
(g8
S'\x14,/>\xf5\xa0\x93\xc0'
p77
tp78
Rp79
aI490
aa(lp80
g4
(g8
S'x,?\xca\x01\xa1\x93\xc0'
p81
tp82
Rp83
aI495
aa(lp84
g4
(g8
S'\xa8\x1c\x89\xc7\xf2\xdb\x93\xc0'
p85
tp86
Rp87
aI727
aa(lp88
g4
(g8
S'\xdc\x04}\xf1\xc7\xcb\x98\xc0'
p89
tp90
Rp91
aI746
aa(lp92
g4
(g8
S'\x84+\xcd\x10}\xf7\x98\xc0'
p93
tp94
Rp95
aI1061
aa(lp96
g4
(g8
S'\x10$9\x9e\xc8\x81\x99\xc0'
p97
tp98
Rp99
aI1062
aa(lp100
g4
(g8
S'l\x13C\xbcL\xc9\x99\xc0'
p101
tp102
Rp103
aI1305
aa(lp104
g4
(g8
S'\x04f\xa0r\xb3\xae\x9a\xc0'
p105
tp106
Rp107
aI1306
aa(lp108
g4
(g8
S'\xc0\x8e\x99,\t\xbe\x9a\xc0'
p109
tp110
Rp111
aI1571
aa(lp112
g4
(g8
S'\xc4I\xa7\xbarA\x9b\xc0'
p113
tp114
Rp115
aI1628
aa(lp116
g4
(g8
S'\xf47n>6m\x9b\xc0'
p117
tp118
Rp119
aI1636
aa(lp120
g4
(g8
S'\xc8\xc0\x87\xec\xd5\x81\x9d\xc0'
p121
tp122
Rp123
aI1799
aa(lp124
g4
(g8
S'h\x03d\t\x80\x90\x9d\xc0'
p125
tp126
Rp127
aI1890
aa(lp128
g4
(g8
S'\xa8\xf87/z\xa4\x9d\xc0'
p129
tp130
Rp131
aI1902
aa(lp132
g4
(g8
S'\xe4\x86n\xaf\xbd\xca\x9d\xc0'
p133
tp134
Rp135
aI1911
aa(lp136
g4
(g8
S'L\xa5\x83\x89M\xcb\x9d\xc0'
p137
tp138
Rp139
aI2035
aa(lp140
g4
(g8
S't=\x90\xd0y\xdc\x9d\xc0'
p141
tp142
Rp143
aI2044
aa(lp144
g4
(g8
S'\xdcC\x99\x0e\xbf\xfc\x9d\xc0'
p145
tp146
Rp147
aI2081
aa(lp148
g4
(g8
S'\x10X\xdc\xca\xc45\x9f\xc0'
p149
tp150
Rp151
aI2091
aa(lp152
g4
(g8
S',E=m\xc7\xd4\x9f\xc0'
p153
tp154
Rp155
aI2150
aa(lp156
g4
(g8
S'x\xeb\xe7\x8a\x87\xdd\x9f\xc0'
p157
tp158
Rp159
aI2303
aa(lp160
g4
(g8
S'.`u\xd3\xb5G\xa1\xc0'
p161
tp162
Rp163
aI2309
aa(lp164
g4
(g8
S'v\xdb\x9f\x06\xfc\xf2\xa1\xc0'
p165
tp166
Rp167
aI2456
aa(lp168
g4
(g8
S'\x96NO\xad\x94m\xa2\xc0'
p169
tp170
Rp171
aI2516
aa(lp172
g4
(g8
S'@\x88\r\x0c\x05n\xa2\xc0'
p173
tp174
Rp175
aI2624
aa(lp176
g4
(g8
S'\xc6\xf2\xe0\xd8F\x80\xa2\xc0'
p177
tp178
Rp179
aI2784
aa(lp180
g4
(g8
S'Bq%\xca\xf2I\xa3\xc0'
p181
tp182
Rp183
aI2879
aa(lp184
g4
(g8
S'\x94=\xed\xe6&J\xa3\xc0'
p185
tp186
Rp187
aI2978
aa(lp188
g4
(g8
S'\xe2t\x1cB\x92r\xa3\xc0'
p189
tp190
Rp191
aI3238
aa(lp192
g4
(g8
S'\x10\x18\xc5\t\xe4\x88\xa3\xc0'
p193
tp194
Rp195
aI3420
aa(lp196
g4
(g8
S'\xa49I\xaab\xc1\xa3\xc0'
p197
tp198
Rp199
aI3521
aa(lp200
g4
(g8
S'\x14\xe1\xb5|\xa2\xc4\xa3\xc0'
p201
tp202
Rp203
aI3619
aa(lp204
g4
(g8
S'\xeaXN9t\x15\xa4\xc0'
p205
tp206
Rp207
aI3650
aa(lp208
g4
(g8
S'\x80\xf2;\xfe\xda1\xa5\xc0'
p209
tp210
Rp211
aI3842
aa(lp212
g4
(g8
S'R\xaf\xe2\x003G\xa6\xc0'
p213
tp214
Rp215
aI3886
aa(lp216
g4
(g8
S'\xfa)\xe5^5G\xa6\xc0'
p217
tp218
Rp219
aI4261
aa(lp220
g4
(g8
S'\x86b\xe7\x08\xa6Z\xa6\xc0'
p221
tp222
Rp223
aI4353
aa(lp224
g4
(g8
S'\xd4\x16B\x84*\\\xa6\xc0'
p225
tp226
Rp227
aI4488
aa(lp228
g4
(g8
S'\x8a\xb4\xcb+\xaf\x85\xa6\xc0'
p229
tp230
Rp231
aI4763
aa(lp232
g4
(g8
S'\xd4\xb1kYG\x8a\xa6\xc0'
p233
tp234
Rp235
aI4796
aa(lp236
g4
(g8
S'\x9c\xe4\xec^\x1b\x8b\xa6\xc0'
p237
tp238
Rp239
aI4937
aa(lp240
g4
(g8
S'\xbe*\xcd\x03J\xc7\xa6\xc0'
p241
tp242
Rp243
aI4974
aa(lp244
g4
(g8
S'\x02c\xf6-\xb2`\xa7\xc0'
p245
tp246
Rp247
aI5013
aa(lp248
g4
(g8
S'\x1e\xbe\xfa\xaa\x8cp\xa7\xc0'
p249
tp250
Rp251
aI5589
aa(lp252
g4
(g8
S'&\x92:\xfd\x06\xbc\xa7\xc0'
p253
tp254
Rp255
aI5622
aa(lp256
g4
(g8
S'\xe6}\xc2Im1\xa8\xc0'
p257
tp258
Rp259
aI5783
aa(lp260
g4
(g8
S'}\x97[\xd8;<\xa8\xc0'
p261
tp262
Rp263
aI5992
aa(lp264
g4
(g8
S'\x83=+/9C\xa8\xc0'
p265
tp266
Rp267
aI6183
aa(lp268
g4
(g8
S'\x0e\xcd\x8da\x9bW\xa8\xc0'
p269
tp270
Rp271
aI6276
aa(lp272
g4
(g8
S'\xe96\xbd\xd6\xe8r\xa8\xc0'
p273
tp274
Rp275
aI6286
aa(lp276
g4
(g8
S'\xb5\xde5\x1d\xe3\x80\xa8\xc0'
p277
tp278
Rp279
aI6287
aa(lp280
g4
(g8
S'q\xfe]~\xbc\xa2\xa8\xc0'
p281
tp282
Rp283
aI6457
aa(lp284
g4
(g8
S'\xe1(\x01\xe9t\xb4\xa8\xc0'
p285
tp286
Rp287
aI6459
aa(lp288
g4
(g8
S'*\xc6B"\x97\x91\xa9\xc0'
p289
tp290
Rp291
aI6523
aa(lp292
g4
(g8
S'\x08\x84\x9dy1M\xab\xc0'
p293
tp294
Rp295
aI6653
aa(lp296
g4
(g8
S'e\x9d\x1b\x1e\xc2\x97\xab\xc0'
p297
tp298
Rp299
aI6951
aa(lp300
g4
(g8
S']\xeb\x85\x01J\xc0\xab\xc0'
p301
tp302
Rp303
aI7099
aa(lp304
g4
(g8
S'+l\x0fWr\x86\xac\xc0'
p305
tp306
Rp307
aI7207
aa(lp308
g4
(g8
S'b\xb2\xdc\x8a\xe9\xb1\xac\xc0'
p309
tp310
Rp311
aI7453
aa(lp312
g4
(g8
S'F\xb6Q\xd1&\xdf\xac\xc0'
p313
tp314
Rp315
aI7685
aa(lp316
g4
(g8
S'\x14\x88^\xf77\xff\xac\xc0'
p317
tp318
Rp319
aI7859
aa(lp320
g4
(g8
S'\xf4\x01\x9a\xfa\x9f\xff\xac\xc0'
p321
tp322
Rp323
aI7980
aa(lp324
g4
(g8
S'\xf1z\xd4jP\x03\xad\xc0'
p325
tp326
Rp327
aI8078
aa(lp328
g4
(g8
S'\xa2\xa9\x92w\xb5\x1a\xad\xc0'
p329
tp330
Rp331
aI8115
aa(lp332
g4
(g8
S'\x97\xdf4/\xb0"\xad\xc0'
p333
tp334
Rp335
aI8155
aa(lp336
g4
(g8
S'?\xd8n\x9d\xdd\xdd\xad\xc0'
p337
tp338
Rp339
aI8191
aa(lp340
g4
(g8
S'\xd3\xd3W\x89\xd6\x81\xae\xc0'
p341
tp342
Rp343
aI8320
aa(lp344
g4
(g8
S'\xa9M\xfa\xb7\x16\x94\xae\xc0'
p345
tp346
Rp347
aI8753
aa(lp348
g4
(g8
S'm\r\xc564\xaa\xae\xc0'
p349
tp350
Rp351
aI8909
aa(lp352
g4
(g8
S'\xd3\xaf\x80\xe6\x83\xae\xae\xc0'
p353
tp354
Rp355
aI8946
aa(lp356
g4
(g8
S'7M\x1c\xf7k\x0c\xaf\xc0'
p357
tp358
Rp359
aI9019
aa(lp360
g4
(g8
S'NW? \xf7H\xaf\xc0'
p361
tp362
Rp363
aI9098
aa(lp364
g4
(g8
S'\x83\xc8\x01\x1c\xd5b\xaf\xc0'
p365
tp366
Rp367
aI9210
aa(lp368
g4
(g8
S'\xd2PY\xe4,c\xaf\xc0'
p369
tp370
Rp371
aI9363
aa(lp372
g4
(g8
S'\xda=\xc8\xa3\xc8g\xaf\xc0'
p373
tp374
Rp375
aI9435
aa(lp376
g4
(g8
S'LD\xea\xec6\xe5\xaf\xc0'
p377
tp378
Rp379
aI9462
aa(lp380
g4
(g8
S'4\xacX\x90\x87+\xb0\xc0'
p381
tp382
Rp383
aI9467
aa(lp384
g4
(g8
S'\xf2x\xa0{\xee,\xb0\xc0'
p385
tp386
Rp387
aI9593
aa(lp388
g4
(g8
S'io\xd0\xfa\x14/\xb0\xc0'
p389
tp390
Rp391
aI9729
aa(lp392
g4
(g8
S'\xee\x13\n\xd0W4\xb0\xc0'
p393
tp394
Rp395
aI10044
aa(lp396
g4
(g8
S':\xf7 \x0b\x06;\xb0\xc0'
p397
tp398
Rp399
aI10155
aa(lp400
g4
(g8
S'\xfd#\\\xa1\x0bA\xb0\xc0'
p401
tp402
Rp403
aI10291
aa(lp404
g4
(g8
S'$:\x9c\xad\xd7B\xb0\xc0'
p405
tp406
Rp407
aI10367
aa(lp408
g4
(g8
S'\xf82\xbd\xe0\xb1x\xb0\xc0'
p409
tp410
Rp411
aI10450
aa(lp412
g4
(g8
S'2\x97\xf0\xce\xc2\x80\xb0\xc0'
p413
tp414
Rp415
aI10490
aa(lp416
g4
(g8
S'\x18\xf6\tK\x80\xa6\xb0\xc0'
p417
tp418
Rp419
aI10569
aa(lp420
g4
(g8
S'f\xcc\xc1\x1e\x82\xa7\xb0\xc0'
p421
tp422
Rp423
aI10637
aa(lp424
g4
(g8
S'\x9f\x7f\xe8<\xc4\xc9\xb0\xc0'
p425
tp426
Rp427
aI10755
aa(lp428
g4
(g8
S'E\x1c\x9b\xce\r\xcd\xb0\xc0'
p429
tp430
Rp431
aI10942
aa(lp432
g4
(g8
S'\x80J\xc0\x17\xf9\xd0\xb0\xc0'
p433
tp434
Rp435
aI11317
aa(lp436
g4
(g8
S'\x1b3\xe8\x19\xf9\xd0\xb0\xc0'
p437
tp438
Rp439
aI11419
aa(lp440
g4
(g8
S'(d|\x98\x80\xd7\xb0\xc0'
p441
tp442
Rp443
aI11479
aa(lp444
g4
(g8
S'\xa0\x81\xef}\xca\x08\xb1\xc0'
p445
tp446
Rp447
aI11485
aa(lp448
g4
(g8
S'T\xcb\x87kg|\xb1\xc0'
p449
tp450
Rp451
aI11542
aa(lp452
g4
(g8
S'\xb8or\xe0\xee~\xb1\xc0'
p453
tp454
Rp455
aI11550
aa(lp456
g4
(g8
S'j0\xdb@\x95\x93\xb1\xc0'
p457
tp458
Rp459
aI11810
aa(lp460
g4
(g8
S'\x8a\xe3\xb4\xea}\x06\xb2\xc0'
p461
tp462
Rp463
aI11822
aa(lp464
g4
(g8
S'V&^WS\x18\xb2\xc0'
p465
tp466
Rp467
aI12127
aa(lp468
g4
(g8
S'C!\xd7Ie\x1c\xb2\xc0'
p469
tp470
Rp471
aI12237
aa(lp472
g4
(g8
S'\x06\x03\r\xbde\x1c\xb2\xc0'
p473
tp474
Rp475
aI12303
aa(lp476
g4
(g8
S'x\xb3\xa5\x7f\xa45\xb2\xc0'
p477
tp478
Rp479
aI12436
aa(lp480
g4
(g8
S'\xaf\x88\xd2\x8c\xbd5\xb2\xc0'
p481
tp482
Rp483
aI12751
aa(lp484
g4
(g8
S'\xb5^\x04\xef\xf36\xb2\xc0'
p485
tp486
Rp487
aI12815
aa(lp488
g4
(g8
S'\xb1\xf9\x97k\xca:\xb2\xc0'
p489
tp490
Rp491
aI12923
aa(lp492
g4
(g8
S'B\xb7\x80\x9f\xa5\x97\xb2\xc0'
p493
tp494
Rp495
aI12973
aa(lp496
g4
(g8
S'PG\x99`\xa8\x97\xb2\xc0'
p497
tp498
Rp499
aI13268
aa(lp500
g4
(g8
S'\x9eX\xb67\xac\xe6\xb2\xc0'
p501
tp502
Rp503
aI13344
aa(lp504
g4
(g8
S'\xf4?OaI\x16\xb3\xc0'
p505
tp506
Rp507
aI13874
aa(lp508
g4
(g8
S'\x15N\xff\xc8\xae%\xb3\xc0'
p509
tp510
Rp511
aI13921
aa(lp512
g4
(g8
S'>\x83p\xeft-\xb3\xc0'
p513
tp514
Rp515
aI13984
aa(lp516
g4
(g8
S'\xcd\xc8\x83b\x98/\xb3\xc0'
p517
tp518
Rp519
aI14005
aa(lp520
g4
(g8
S'\xf88\x1d\xf7\xd92\xb3\xc0'
p521
tp522
Rp523
aI14266
aa(lp524
g4
(g8
S'\x1d(\xda!\x023\xb3\xc0'
p525
tp526
Rp527
aI14320
aa(lp528
g4
(g8
S'\xe6IX\xc3\xe2"\xb4\xc0'
p529
tp530
Rp531
aI14405
aa(lp532
g4
(g8
S'\xf5\x00T\x90\xf8=\xb4\xc0'
p533
tp534
Rp535
aI15205
aa(lp536
g4
(g8
S'\\\x91\xbd\xc5\x97[\xb4\xc0'
p537
tp538
Rp539
aI15212
aa(lp540
g4
(g8
S'\xd7\xbb\x7fL\x98[\xb4\xc0'
p541
tp542
Rp543
aI15238
aa(lp544
g4
(g8
S'\x91\xa6\xc9;(^\xb4\xc0'
p545
tp546
Rp547
aI15253
aa(lp548
g4
(g8
S'B\x06\x942\xf8a\xb4\xc0'
p549
tp550
Rp551
aI15387
aa(lp552
g4
(g8
S'\xc4Le\xe35c\xb4\xc0'
p553
tp554
Rp555
aI15514
aa(lp556
g4
(g8
S'\x1afx\xe6\xe7\x80\xb4\xc0'
p557
tp558
Rp559
aI15612
aa(lp560
g4
(g8
S'm\x93\xc2\xae!\x81\xb4\xc0'
p561
tp562
Rp563
aI15735
aa(lp564
g4
(g8
S'\x8aA\xe4\xba\xb5\x86\xb4\xc0'
p565
tp566
Rp567
aI15779
aa(lp568
g4
(g8
S'1\xe3\x9a\x7f\xb7\x89\xb4\xc0'
p569
tp570
Rp571
aI15842
aa(lp572
g4
(g8
S'\xb0\xe2\xa1jG\x8b\xb4\xc0'
p573
tp574
Rp575
aI15929
aa(lp576
g4
(g8
S'\x82\x03\x15\x05\x1a\x8e\xb4\xc0'
p577
tp578
Rp579
aI15978
aa(lp580
g4
(g8
S'\xd2\xaa{\xf8\xe0\x97\xb4\xc0'
p581
tp582
Rp583
aI16005
aa(lp584
g4
(g8
S'\x90\xa4\x8a\x9c\xce\xaf\xb4\xc0'
p585
tp586
Rp587
aI16063
aa(lp588
g4
(g8
S'T\xffz\xf7#\xca\xb4\xc0'
p589
tp590
Rp591
aI16335
aa(lp592
g4
(g8
S"\x9a8'}L\xd4\xb5\xc0"
p593
tp594
Rp595
aI16410
aa(lp596
g4
(g8
S'\x82\x05\xd3\x8dL\xd4\xb5\xc0'
p597
tp598
Rp599
aI16711
aa(lp600
g4
(g8
S'\xe9\xed?q}+\xb6\xc0'
p601
tp602
Rp603
aI16790
aa(lp604
g4
(g8
S'S\xba\xb5N\xba+\xb6\xc0'
p605
tp606
Rp607
aI17288
aa(lp608
g4
(g8
S'W\xae\xaa[\xca,\xb6\xc0'
p609
tp610
Rp611
aI17878
aa(lp612
g4
(g8
S'\xd8\x9a\xbb\x0f\xfcG\xb6\xc0'
p613
tp614
Rp615
aI17987
aa(lp616
g4
(g8
S'8\x10 \x12\xe8J\xb6\xc0'
p617
tp618
Rp619
aI18265
aa(lp620
g4
(g8
S'Z;\xcc\x9c\xe8J\xb6\xc0'
p621
tp622
Rp623
aI18600
aa(lp624
g4
(g8
S'\xd43m\xdam}\xb6\xc0'
p625
tp626
Rp627
aI18603
aa(lp628
g4
(g8
S'\x82\xbb\xdem;\xab\xb6\xc0'
p629
tp630
Rp631
aI18801
aa(lp632
g4
(g8
S'V\xad\x9f\xde\xe2\xac\xb6\xc0'
p633
tp634
Rp635
aI18815
aa(lp636
g4
(g8
S'\xf4O\x90x\x17\xbe\xb6\xc0'
p637
tp638
Rp639
aI19074
aa(lp640
g4
(g8
S'*\x12=\t=\xbe\xb6\xc0'
p641
tp642
Rp643
aI19281
aa(lp644
g4
(g8
S'\xd0\x9f{\xefq\xbe\xb6\xc0'
p645
tp646
Rp647
aI19329
aa(lp648
g4
(g8
S'\xe6H\xba\xfd!\xc4\xb6\xc0'
p649
tp650
Rp651
aI19384
aa(lp652
g4
(g8
S'\xf9\xad\xb9\x12\x80\xd3\xb6\xc0'
p653
tp654
Rp655
aI19467
aa(lp656
g4
(g8
S'*\xe74\x01\x9d\xd4\xb6\xc0'
p657
tp658
Rp659
aI19649
aa(lp660
g13
aI19706
aaaa.