(lp0
(lp1
(lp2
F51.77636675716994
aF52.206384128997044
aF54.11179819487228
aF31.926260474888068
aF89.99159882990757
aF65.5320510248677
aF51.69410001270836
aF31.461884036120523
aF85.30762972307642
aF41.98843341950628
aF50.874454201882926
aF84.22883678953795
aF53.68549312014832
aF62.1958136715257
aF30.525586956394882
aF86.12836816430598
aF76.60719606925427
aF39.672000707526706
aF42.17595992556671
aF88.1865889144548
aF53.11298797324555
aF51.21991847169453
aF75.2577801283712
aF57.941396426444356
aF40.66254458088224
aF85.66302012399736
aF71.14118026823579
aF72.95199995963033
aF62.51667605928781
aF82.06861342821023
aF64.91377993609515
aF62.24438623754393
aF64.29259238945906
aF86.49206642697482
aF67.39546427940266
aF65.28091179668894
aF72.26403959592794
aF76.07837732893535
aF84.69577794135404
aF58.11586049735726
aF43.18099424005159
aF56.612371539607594
aF71.59144560356992
aF87.36477026927147
aF73.24536560965942
aF78.47369515870247
aF71.37221847200107
aF44.139991291928354
aF33.89824898424608
aF68.36357807397872
aF79.32139291617577
aF53.50341878918727
aF67.12034466220007
aF73.2479885117663
aF85.2901969783577
aF89.77083494406044
aF30.046252291531943
aF82.85974580181846
aF81.7854245139176
aF60.65590156544761
aF55.206601583186995
aF34.643223524454584
aF42.95764807153907
aF60.06627122809675
aF51.251594414094164
aF67.37930177030896
aF88.61012738119253
aF60.199509346568675
aF60.6164412551352
aF66.71300465839931
aF78.6789612777122
aF84.39635473804822
aF36.31682983443363
aF83.9760764872643
aF83.32382802745501
aF88.9622074432512
aF69.20241803987403
aF75.54666291511832
aF54.24961516113015
aF83.96488313779139
aF48.268772375370894
aF31.96481960083054
aF31.208598533329805
aF38.954593044409776
aF59.116326478575566
aF68.60049103571652
aF79.24187748556159
aF66.44349698503574
aF60.1290341182127
aF85.63562742384322
aF61.61616021205003
aF43.29883750690938
aF68.64495242285514
aF48.7778799778631
aF63.17209086675031
aF65.70969445279823
aF73.12846424012054
aF59.01752307342528
aF36.9839532579698
aF72.97085148156076
aF63.005052855043004
aF36.22776622221979
aF78.02166532946573
aF68.7393636604063
aF50.55871539682407
aF70.33710807986915
aF38.00152352279167
aF55.48101074130261
aF77.8699702065478
aF68.49477251547528
aF40.10309891584227
aF85.18947328694638
aF54.13773852172196
aF58.923196677095234
aF77.63563807524315
aF56.54509081926635
aF56.39010275693104
aF47.42815671336916
aF63.024747057185735
aF57.20316648525164
aF73.70181243189097
aF68.80842326295684
aF55.30759184763927
aF52.46992143905392
aF54.07074351406773
aF54.85689651980407
aF87.84359409189274
aF69.34252765740399
aF75.36312170450533
aF84.36799271955553
aF57.77339304354461
aF70.48048627342033
aF76.81441497382616
aF76.03038919013932
aF64.69146484715264
aF44.5976787307732
aF69.30707646616403
aF39.15848866428995
aF78.99529596582391
aF80.05660705944072
aF80.52319082354921
aF50.3046911483122
aF86.51426042330223
aF50.216301337469915
aF43.83459043511992
aF49.58919586920182
aF55.58819844048392
aF64.48419898454267
aF80.92224631941968
aF61.69793003169144
aF53.67658573908129
aF76.10199191943991
aF80.58242533376013
aF60.12862797834255
aF79.54730105127697
aF51.61095962163188
aF38.92247629055501
aF61.68286402414421
aF84.89185543937091
aF80.81940700393662
aF71.19537287480082
aF75.36930238244716
aF61.17855546486363
aF72.05755497127407
aF80.62448497504519
aF62.496949574384395
aF38.802856913326764
aF62.53362633704664
aF59.16068401175394
aF89.82071191718094
aF57.139235700091376
aF52.73344243638594
aF88.95373017657829
aF80.81786577530775
aF88.43687645326094
aF88.55424293129389
aF84.56629683905204
aF34.60451382912641
aF84.92050563580077
aF86.24217144523271
aF70.53963645749424
aF84.3737818115913
aF41.26913527250669
aF86.27405580814289
aF59.674565305620824
aF88.66299377761277
aF81.74002658358128
aF44.53063086248855
aF83.31403438861588
aF53.60807738655079
aF85.02135032519635
aF59.58158494721697
aF81.85678845369571
aF70.32958936030008
aF72.12834759205691
aF66.6467386927651
aF66.25374404119624
aF58.83951602555096
aF55.695121863382695
aF73.14459724141477
aF80.94196958201636
aF79.74355128522868
aF77.59323370910217
aF87.61045227962205
aF81.3808291741418
aF61.976296260518865
aF62.176629995651346
aF56.27699070002592
aF36.86117802102566
aF40.69845330592223
aF68.35336434861482
aF69.79523121849587
aF60.78025420851998
aF53.368856482400076
aF88.36777498151685
aF83.2481800847437
aF69.11828315497978
aF69.29651380027445
aF83.33796645157194
aF35.11229421767959
aF57.942818309024304
aF73.50365765940482
aF86.06411697537956
aF74.72210566694216
aF73.35542673728425
aF78.99635762914431
aF69.23297569368464
aF88.32489664206634
aF79.89886149044224
aF37.042001281092645
aF62.31203417820975
aF61.6221308480085
aF83.0955789545219
aF69.38178628948998
aF83.701019518938
aF62.11500485083808
aF58.1502882259892
aF55.91560390557808
aF63.792320161696026
aF87.31976937062069
aF61.77723499662895
aF72.84655764869206
aF69.03909074938943
aF66.06329783408059
aF73.06745651069284
aF61.4454893167171
aF60.186407450636835
aF55.39814504071229
aF77.18686175746639
aF89.84713541096667
aF68.51270102473285
aF86.78092933210507
aF68.8893894381846
aF68.72393024880274
aF71.42006207964013
aF54.717144367206714
aF79.51757936516346
aF58.714620150053044
aF77.08782330091839
aF60.857088791212256
aF88.0598850071945
aF47.08105108136647
aF77.2837820903857
aF88.00777480925768
aF73.59048630991674
aF88.2474295926151
aF81.2331179013265
aF64.41703090780581
aF74.27347439906205
aF60.622574918878485
aF68.23355209754249
aF72.0148314723248
aF73.08786586921839
aF52.61479915214465
aF53.2890418919051
aF55.623117134854006
aF62.178883577207515
aF47.048937088595
aF64.06168171752711
aF74.26545606202404
aF86.94119011810511
aF74.8890827576754
aF48.936081290553844
aF87.76883720367601
aF89.31725367261632
aF65.87946778886155
aF89.67056404922278
aF73.23662177970672
aF69.59364110982341
aF81.87964499450116
aF83.99520660339353
aF89.74268160938115
aF54.37647334734217
aF88.68812595110657
aF76.59283772639643
aF84.05682298311476
aF66.83585974960971
aF87.28844778406577
aF49.47922085716186
aF78.73073648296958
aF59.038365138560025
aF59.23987907413213
aF65.87475405897374
aF55.355324262298
aF59.239547707847905
aF81.41216783634565
aF60.23983262454271
aF54.426873881299215
aF42.011669232547746
aF89.7716432519095
aF83.73397134146279
aF89.35665315769907
aF89.9126050812549
aF74.2696842982132
aF75.61994107648061
aaa(lp3
cnumpy.core.multiarray
scalar
p4
(cnumpy
dtype
p5
(S'f8'
p6
I0
I1
tp7
Rp8
(I3
S'<'
p9
NNNI-1
I-1
I0
tp10
bS'(m\x86\xf7\x1f$\xb9\xc0'
p11
tp12
Rp13
aa(lp14
(lp15
(lp16
g4
(g8
S'\xbe\xa8}\x1d\xabp\xb7@'
p17
tp18
Rp19
aI0
aa(lp20
g4
(g8
S'\\6\x993V2\xae@'
p21
tp22
Rp23
aI0
aa(lp24
g4
(g8
S'\x96\x80-^K\x7f\xa4@'
p25
tp26
Rp27
aI0
aa(lp28
g4
(g8
S'\xbc\x91\xbe\xeen\xa6\x95@'
p29
tp30
Rp31
aI0
aa(lp32
g4
(g8
S'\x18y\xb4sau\x81@'
p33
tp34
Rp35
aI0
aa(lp36
g4
(g8
S'\x00{\xfd\x04aLj@'
p37
tp38
Rp39
aI0
aa(lp40
g4
(g8
S'@\x14\xd1\xa3bQV\xc0'
p41
tp42
Rp43
aI0
aa(lp44
g4
(g8
S'0\xe29\x1e\x94\xd6p\xc0'
p45
tp46
Rp47
aI0
aa(lp48
g4
(g8
S'\xc0j\x87\x18\x81g\x81\xc0'
p49
tp50
Rp51
aI0
aa(lp52
g4
(g8
S'\xf8\x82\x1f\xee\x0e\x81\x81\xc0'
p53
tp54
Rp55
aI188
aa(lp56
g4
(g8
S'\xc0\x01\xe0\x02\xbe\x08\x88\xc0'
p57
tp58
Rp59
aI236
aa(lp60
g4
(g8
S'\xe8\x8a\xcc\xf4[q\x88\xc0'
p61
tp62
Rp63
aI275
aa(lp64
g4
(g8
S'\xf8\xfe\xec\xc1\x86x\x88\xc0'
p65
tp66
Rp67
aI528
aa(lp68
g4
(g8
S'hA5\xe3\x89\x91\x89\xc0'
p69
tp70
Rp71
aI531
aa(lp72
g4
(g8
S'(\xf3\xb9Y\xb7\x99\x89\xc0'
p73
tp74
Rp75
aI555
aa(lp76
g4
(g8
S'P4\xe0\xcdsz\x8c\xc0'
p77
tp78
Rp79
aI642
aa(lp80
g4
(g8
S'\xa0\x14\xb4\xa3\xf4\xe4\x8c\xc0'
p81
tp82
Rp83
aI658
aa(lp84
g4
(g8
S'x\xac\xb2\x1a4\x81\x8d\xc0'
p85
tp86
Rp87
aI676
aa(lp88
g4
(g8
S'\x00\x1c\x12n4%\x8e\xc0'
p89
tp90
Rp91
aI683
aa(lp92
g4
(g8
S'\x10\x12\x1f\xe7\xddG\x91\xc0'
p93
tp94
Rp95
aI763
aa(lp96
g4
(g8
S'8>\x90\xf7\xd8g\x95\xc0'
p97
tp98
Rp99
aI831
aa(lp100
g4
(g8
S'\x88\x0cM\xf4xy\x95\xc0'
p101
tp102
Rp103
aI909
aa(lp104
g4
(g8
S'\x185\xf7\xfe\xbaL\x96\xc0'
p105
tp106
Rp107
aI999
aa(lp108
g4
(g8
S'\\\x14\x9b\x175n\x96\xc0'
p109
tp110
Rp111
aI1028
aa(lp112
g4
(g8
S'T\xa1F\n\xc7\xf5\x96\xc0'
p113
tp114
Rp115
aI1178
aa(lp116
g4
(g8
S'\xa8\xd5\xf4\xc8\\\x1b\x97\xc0'
p117
tp118
Rp119
aI1321
aa(lp120
g4
(g8
S'\x0c\x8e\x0bR\xf0\x1b\x9b\xc0'
p121
tp122
Rp123
aI1343
aa(lp124
g4
(g8
S'(\x1f\x9d}\x92\x1e\x9b\xc0'
p125
tp126
Rp127
aI1624
aa(lp128
g4
(g8
S'(l\xed\xa27\x8e\x9b\xc0'
p129
tp130
Rp131
aI1857
aa(lp132
g4
(g8
S'8\xd4\xc5\xaf\x7f\xd0\x9d\xc0'
p133
tp134
Rp135
aI1924
aa(lp136
g4
(g8
S'\xbc \xb9\xdao\xda\x9d\xc0'
p137
tp138
Rp139
aI1936
aa(lp140
g4
(g8
S'\xe0\x80ogi\xec\x9d\xc0'
p141
tp142
Rp143
aI2041
aa(lp144
g4
(g8
S'D\xe1\x86\xe9k\xb4\x9e\xc0'
p145
tp146
Rp147
aI2067
aa(lp148
g4
(g8
S'\xa0\x00}\x0f7\x84\x9f\xc0'
p149
tp150
Rp151
aI2232
aa(lp152
g4
(g8
S'`\x89\x1e"\xbe\xcd\x9f\xc0'
p153
tp154
Rp155
aI2533
aa(lp156
g4
(g8
S'\xba\xf5\x12\xec\x16\xd0\xa1\xc0'
p157
tp158
Rp159
aI2740
aa(lp160
g4
(g8
S'F\x9e\x16i\xbd\xfd\xa1\xc0'
p161
tp162
Rp163
aI2778
aa(lp164
g4
(g8
S'\x86\x97\x11\x96a\xb1\xa2\xc0'
p165
tp166
Rp167
aI2861
aa(lp168
g4
(g8
S'\xac\xb0Y\xe6\xfa\xbc\xa2\xc0'
p169
tp170
Rp171
aI3252
aa(lp172
g4
(g8
S'\xdc\xc3\xfb\xdfS,\xa3\xc0'
p173
tp174
Rp175
aI3284
aa(lp176
g4
(g8
S'\x88\xdf\xe27+B\xa4\xc0'
p177
tp178
Rp179
aI3429
aa(lp180
g4
(g8
S'rD\xe2WP\x98\xa5\xc0'
p181
tp182
Rp183
aI3638
aa(lp184
g4
(g8
S'\x00IV\xb5(\xe8\xa5\xc0'
p185
tp186
Rp187
aI3751
aa(lp188
g4
(g8
S'\x0c\xb1WX\xbb\xa5\xa6\xc0'
p189
tp190
Rp191
aI4183
aa(lp192
g4
(g8
S'\x18\xe1s4\xf7\xcd\xa6\xc0'
p193
tp194
Rp195
aI4469
aa(lp196
g4
(g8
S'N\x85AHQ\xce\xa6\xc0'
p197
tp198
Rp199
aI4473
aa(lp200
g4
(g8
S'\xc0=0\xe8\x99\xe4\xa6\xc0'
p201
tp202
Rp203
aI4561
aa(lp204
g4
(g8
S'\xf0\x98\xfd\x00\xb5\xf0\xa6\xc0'
p205
tp206
Rp207
aI4662
aa(lp208
g4
(g8
S'\xce\xdf\xdc=\xe4\xf5\xa6\xc0'
p209
tp210
Rp211
aI4671
aa(lp212
g4
(g8
S'\xa6bY\xba\xb0\x12\xa7\xc0'
p213
tp214
Rp215
aI4713
aa(lp216
g4
(g8
S'|)s\xfb\xee\\\xa7\xc0'
p217
tp218
Rp219
aI4786
aa(lp220
g4
(g8
S'\xb0J%.d\x99\xa7\xc0'
p221
tp222
Rp223
aI4820
aa(lp224
g4
(g8
S'\xa6\x80V\x81$\xec\xa7\xc0'
p225
tp226
Rp227
aI4836
aa(lp228
g4
(g8
S'\xaf\x03\x9a\x8a\xb1\xb0\xa9\xc0'
p229
tp230
Rp231
aI4902
aa(lp232
g4
(g8
S'\xb7\xe1C#\x892\xaa\xc0'
p233
tp234
Rp235
aI5133
aa(lp236
g4
(g8
S'\xcc_"*\x148\xaa\xc0'
p237
tp238
Rp239
aI5406
aa(lp240
g4
(g8
S'\x9a\x84\xbe\x10\xce\\\xaa\xc0'
p241
tp242
Rp243
aI5570
aa(lp244
g4
(g8
S'\x1d+;a-\x8c\xaa\xc0'
p245
tp246
Rp247
aI5691
aa(lp248
g4
(g8
S'\x9c\xc0II\xb5\xb7\xab\xc0'
p249
tp250
Rp251
aI5763
aa(lp252
g4
(g8
S'\x9d\xcb\x80x\r/\xac\xc0'
p253
tp254
Rp255
aI5893
aa(lp256
g4
(g8
S'\xba\xb5\xb4\xbb\xe94\xac\xc0'
p257
tp258
Rp259
aI6060
aa(lp260
g4
(g8
S'W\xed\xd07\xb1\x91\xad\xc0'
p261
tp262
Rp263
aI6084
aa(lp264
g4
(g8
S'+"\xad(\x0f\x97\xad\xc0'
p265
tp266
Rp267
aI6252
aa(lp268
g4
(g8
S'\xefT\xdd\xe4\xdc\x98\xad\xc0'
p269
tp270
Rp271
aI6456
aa(lp272
g4
(g8
S'\x9b\xd9\x9dq\x9e\xb9\xad\xc0'
p273
tp274
Rp275
aI6495
aa(lp276
g4
(g8
S'\xd7\x81P\x813/\xae\xc0'
p277
tp278
Rp279
aI6611
aa(lp280
g4
(g8
S'\xad\xe1\x93i;N\xae\xc0'
p281
tp282
Rp283
aI6645
aa(lp284
g4
(g8
S'\x18\xc6+\x7f\x87\xab\xae\xc0'
p285
tp286
Rp287
aI6705
aa(lp288
g4
(g8
S'i\x89}\xb6\x8f\xf5\xae\xc0'
p289
tp290
Rp291
aI7072
aa(lp292
g4
(g8
S'\xfa1\x1a\xb1T\xfc\xae\xc0'
p293
tp294
Rp295
aI7232
aa(lp296
g4
(g8
S'\xaf\x83\x0b\x9a\xd0e\xaf\xc0'
p297
tp298
Rp299
aI7394
aa(lp300
g4
(g8
S'O)\x03\x1cai\xaf\xc0'
p301
tp302
Rp303
aI7566
aa(lp304
g4
(g8
S'v\x01\xb2\xfe\xf6?\xb0\xc0'
p305
tp306
Rp307
aI7960
aa(lp308
g4
(g8
S'\x18\xdc\xb3L\xfed\xb0\xc0'
p309
tp310
Rp311
aI8123
aa(lp312
g4
(g8
S'0\xf8\x8e\x16\x99\xa0\xb0\xc0'
p313
tp314
Rp315
aI8322
aa(lp316
g4
(g8
S'Om\xb1\n\xfa\xe6\xb0\xc0'
p317
tp318
Rp319
aI8333
aa(lp320
g4
(g8
S'\xe1T\xb0\x8f7\xe7\xb0\xc0'
p321
tp322
Rp323
aI8391
aa(lp324
g4
(g8
S'\xb6>RPm$\xb1\xc0'
p325
tp326
Rp327
aI8438
aa(lp328
g4
(g8
S'C\xd9\x1a\x8aoQ\xb1\xc0'
p329
tp330
Rp331
aI8558
aa(lp332
g4
(g8
S'\xb4\xf5\xac\xf9\xd2[\xb1\xc0'
p333
tp334
Rp335
aI8763
aa(lp336
g4
(g8
S'\x02\xb1\x95E\xb2c\xb1\xc0'
p337
tp338
Rp339
aI8773
aa(lp340
g4
(g8
S'\xdbX(\xe4\xf2d\xb1\xc0'
p341
tp342
Rp343
aI8933
aa(lp344
g4
(g8
S'4\xf8\xd4\xacx\xdc\xb1\xc0'
p345
tp346
Rp347
aI8990
aa(lp348
g4
(g8
S'n\xaa\xc6\x90\x1b\x07\xb2\xc0'
p349
tp350
Rp351
aI9089
aa(lp352
g4
(g8
S'\xf1(\x93\xf2\x98\x0c\xb2\xc0'
p353
tp354
Rp355
aI9137
aa(lp356
g4
(g8
S'\x1c\x16\x8f\xaa\xf4\x0c\xb2\xc0'
p357
tp358
Rp359
aI9163
aa(lp360
g4
(g8
S'\x1b\x7f\x16M\xa5D\xb2\xc0'
p361
tp362
Rp363
aI9258
aa(lp364
g4
(g8
S'\xb2\xa2@B\x9eJ\xb2\xc0'
p365
tp366
Rp367
aI9328
aa(lp368
g4
(g8
S'\x8e!\x83#?K\xb2\xc0'
p369
tp370
Rp371
aI9341
aa(lp372
g4
(g8
S'j\x15J^\x87N\xb2\xc0'
p373
tp374
Rp375
aI9435
aa(lp376
g4
(g8
S'\xbc\xf9Y\x1f(`\xb2\xc0'
p377
tp378
Rp379
aI9569
aa(lp380
g4
(g8
S'D\xfdF\x83\xd6`\xb2\xc0'
p381
tp382
Rp383
aI9668
aa(lp384
g4
(g8
S'W\xa4@\rCp\xb2\xc0'
p385
tp386
Rp387
aI9771
aa(lp388
g4
(g8
S'\x0cV\x91I\x11u\xb2\xc0'
p389
tp390
Rp391
aI9870
aa(lp392
g4
(g8
S'\x14\x98\xc9\xf9o\x80\xb2\xc0'
p393
tp394
Rp395
aI9934
aa(lp396
g4
(g8
S'\x86\x0c\x10\xab2\x8c\xb2\xc0'
p397
tp398
Rp399
aI9941
aa(lp400
g4
(g8
S'Q\xcc\xa3\x8cy\xee\xb2\xc0'
p401
tp402
Rp403
aI9957
aa(lp404
g4
(g8
S'\xd6\x0f|\xb5\t\xf4\xb2\xc0'
p405
tp406
Rp407
aI10158
aa(lp408
g4
(g8
S'>\x9f$@x\x08\xb3\xc0'
p409
tp410
Rp411
aI10500
aa(lp412
g4
(g8
S'\x8e\x01?\xb4G\x0b\xb3\xc0'
p413
tp414
Rp415
aI10526
aa(lp416
g4
(g8
S'c\x99\x1e\xcd\x17\x1b\xb3\xc0'
p417
tp418
Rp419
aI10625
aa(lp420
g4
(g8
S'0\xa7O:\x16\x1c\xb3\xc0'
p421
tp422
Rp423
aI10752
aa(lp424
g4
(g8
S'\xc7\ru\x1b\xe7\x1d\xb3\xc0'
p425
tp426
Rp427
aI10802
aa(lp428
g4
(g8
S'\x05\xd2\x07\x915 \xb3\xc0'
p429
tp430
Rp431
aI10976
aa(lp432
g4
(g8
S'\xf2\x8f\xa8~&+\xb3\xc0'
p433
tp434
Rp435
aI10997
aa(lp436
g4
(g8
S'\xf61\xd4\xc0\x87W\xb3\xc0'
p437
tp438
Rp439
aI11028
aa(lp440
g4
(g8
S'\xbc\xc7\xfb\x88\x86X\xb3\xc0'
p441
tp442
Rp443
aI11031
aa(lp444
g4
(g8
S')d\x9dp\xc9[\xb3\xc0'
p445
tp446
Rp447
aI11039
aa(lp448
g4
(g8
S'\xa7\x92\x0e\xfe\xcf[\xb3\xc0'
p449
tp450
Rp451
aI11194
aa(lp452
g4
(g8
S'^\xb2\xa8\xd2\x1c\x89\xb3\xc0'
p453
tp454
Rp455
aI11277
aa(lp456
g4
(g8
S'1N\xb1\xee\xf7\xd7\xb3\xc0'
p457
tp458
Rp459
aI11505
aa(lp460
g4
(g8
S'e\x87\x88\x18\xd5\xdc\xb3\xc0'
p461
tp462
Rp463
aI11853
aa(lp464
g4
(g8
S'\x16*\x9f\xc1\xf6\xee\xb3\xc0'
p465
tp466
Rp467
aI11910
aa(lp468
g4
(g8
S'&\xa5\xe3y\x0b\xf4\xb3\xc0'
p469
tp470
Rp471
aI11946
aa(lp472
g4
(g8
S'bhl\xebe\xf9\xb3\xc0'
p473
tp474
Rp475
aI11969
aa(lp476
g4
(g8
S'\x1e\xa0\xbc~\xf5\xf9\xb3\xc0'
p477
tp478
Rp479
aI12138
aa(lp480
g4
(g8
S';\x9b\x15bf\x08\xb4\xc0'
p481
tp482
Rp483
aI12212
aa(lp484
g4
(g8
S'\x1d\xba\xc3\xb4g<\xb4\xc0'
p485
tp486
Rp487
aI12288
aa(lp488
g4
(g8
S'$\x1c\xb9W\x83?\xb4\xc0'
p489
tp490
Rp491
aI12310
aa(lp492
g4
(g8
S'\xe0\\P\xa7n\x94\xb4\xc0'
p493
tp494
Rp495
aI12362
aa(lp496
g4
(g8
S'\xb8\xa3\xd5W\xcb\x95\xb4\xc0'
p497
tp498
Rp499
aI12727
aa(lp500
g4
(g8
S'x\xb5\x1f\xe8\xb0\x96\xb4\xc0'
p501
tp502
Rp503
aI12791
aa(lp504
g4
(g8
S'q2\xb1\xc8\x0b\xf7\xb4\xc0'
p505
tp506
Rp507
aI12810
aa(lp508
g4
(g8
S'WCW\xc3\x11\xf7\xb4\xc0'
p509
tp510
Rp511
aI13267
aa(lp512
g4
(g8
S'\x04A\x06\xa6\x12\xf7\xb4\xc0'
p513
tp514
Rp515
aI13400
aa(lp516
g4
(g8
S'\xfc^]M\x86\xfa\xb4\xc0'
p517
tp518
Rp519
aI13449
aa(lp520
g4
(g8
S'B\xb7\xfe\xbb\xad\x15\xb5\xc0'
p521
tp522
Rp523
aI13494
aa(lp524
g4
(g8
S'\xf8\xbc\xf6\x12\x8b\xb4\xb5\xc0'
p525
tp526
Rp527
aI13544
aa(lp528
g4
(g8
S'\x86\x1c\xc2\x1f\xf1\xce\xb5\xc0'
p529
tp530
Rp531
aI13877
aa(lp532
g4
(g8
S':H\xb1\x98\xa2\xd0\xb5\xc0'
p533
tp534
Rp535
aI13891
aa(lp536
g4
(g8
S'\xab\x08\xf11&\xec\xb5\xc0'
p537
tp538
Rp539
aI13913
aa(lp540
g4
(g8
S'n\x00.\x0e.\xee\xb5\xc0'
p541
tp542
Rp543
aI14036
aa(lp544
g4
(g8
S'Q\x11\xd4\x084\xee\xb5\xc0'
p545
tp546
Rp547
aI14081
aa(lp548
g4
(g8
S'\nOo\x9f\xb9\x00\xb6\xc0'
p549
tp550
Rp551
aI14086
aa(lp552
g4
(g8
S'\xea~O\xc5\x1e\x0b\xb6\xc0'
p553
tp554
Rp555
aI14105
aa(lp556
g4
(g8
S'\xd4\xa7c<j\x0f\xb6\xc0'
p557
tp558
Rp559
aI14420
aa(lp560
g4
(g8
S'\xa72]1\x93*\xb6\xc0'
p561
tp562
Rp563
aI14578
aa(lp564
g4
(g8
S'JF\x82$|1\xb6\xc0'
p565
tp566
Rp567
aI14712
aa(lp568
g4
(g8
S'\xe8\x1c\x1e\xd5\xceL\xb6\xc0'
p569
tp570
Rp571
aI14813
aa(lp572
g4
(g8
S'\xe1\x94e\xff\xd2L\xb6\xc0'
p573
tp574
Rp575
aI14823
aa(lp576
g4
(g8
S'"\xd4\xdc\x90TP\xb6\xc0'
p577
tp578
Rp579
aI14837
aa(lp580
g4
(g8
S'\xb1\x8bKH\x8fY\xb6\xc0'
p581
tp582
Rp583
aI14923
aa(lp584
g4
(g8
S'j\xd7k\xb4Ns\xb6\xc0'
p585
tp586
Rp587
aI15391
aa(lp588
g4
(g8
S'\x923\xd9\xfe?\x8e\xb6\xc0'
p589
tp590
Rp591
aI15461
aa(lp592
g4
(g8
S'{=(\x03\xd1\x8e\xb6\xc0'
p593
tp594
Rp595
aI15536
aa(lp596
g4
(g8
S'>=0^\x0f\xb4\xb6\xc0'
p597
tp598
Rp599
aI15585
aa(lp600
g4
(g8
S'B\xc9\x0f\xd9\xb5\xba\xb6\xc0'
p601
tp602
Rp603
aI15892
aa(lp604
g4
(g8
S'jt\x98\n\x1e\xd0\xb6\xc0'
p605
tp606
Rp607
aI15926
aa(lp608
g4
(g8
S'N\xea\xcaVm\x13\xb7\xc0'
p609
tp610
Rp611
aI15968
aa(lp612
g4
(g8
S't\x0b\xe7V\xf8\x13\xb7\xc0'
p613
tp614
Rp615
aI16086
aa(lp616
g4
(g8
S'\xb8\x97G\xbdh\x17\xb7\xc0'
p617
tp618
Rp619
aI16127
aa(lp620
g4
(g8
S"nU\xc5\xc3\xfe'\xb7\xc0"
p621
tp622
Rp623
aI16215
aa(lp624
g4
(g8
S'\x8bK\xdf\xf6\xfcA\xb7\xc0'
p625
tp626
Rp627
aI16216
aa(lp628
g4
(g8
S'o\xc1\xce3\x07B\xb7\xc0'
p629
tp630
Rp631
aI16293
aa(lp632
g4
(g8
S'\x94^ly$B\xb7\xc0'
p633
tp634
Rp635
aI16294
aa(lp636
g4
(g8
S'\x13-\xedo\xc3q\xb7\xc0'
p637
tp638
Rp639
aI16338
aa(lp640
g4
(g8
S'|\x1a\xcaZ\xecs\xb7\xc0'
p641
tp642
Rp643
aI16517
aa(lp644
g4
(g8
S'R\xb2\xaa\xdf\x91\xa7\xb7\xc0'
p645
tp646
Rp647
aI16584
aa(lp648
g4
(g8
S'\xf4\xba\x93\xb3j\xa8\xb7\xc0'
p649
tp650
Rp651
aI16935
aa(lp652
g4
(g8
S'\xaa\x984\x8bf\xab\xb7\xc0'
p653
tp654
Rp655
aI16983
aa(lp656
g4
(g8
S"\xaa\xda\x08'\xfb\xb5\xb7\xc0"
p657
tp658
Rp659
aI17012
aa(lp660
g4
(g8
S'&\xe69\x0eR\xb9\xb7\xc0'
p661
tp662
Rp663
aI17296
aa(lp664
g4
(g8
S'\xb9\x9b!G\xb7%\xb8\xc0'
p665
tp666
Rp667
aI17402
aa(lp668
g4
(g8
S'oO&\xa2.+\xb8\xc0'
p669
tp670
Rp671
aI17688
aa(lp672
g4
(g8
S')n\xffX\x8b0\xb8\xc0'
p673
tp674
Rp675
aI17883
aa(lp676
g4
(g8
S'\xe01\x89\x17|\xa4\xb8\xc0'
p677
tp678
Rp679
aI18019
aa(lp680
g4
(g8
S'X89\xa5\xf8\xb9\xb8\xc0'
p681
tp682
Rp683
aI18652
aa(lp684
g4
(g8
S'U\xff\xba@\x82\xcc\xb8\xc0'
p685
tp686
Rp687
aI18737
aa(lp688
g4
(g8
S'\x9f\r\x03\x88\xaf\xcc\xb8\xc0'
p689
tp690
Rp691
aI19127
aa(lp692
g4
(g8
S'\x998\xc1r[\xcf\xb8\xc0'
p693
tp694
Rp695
aI19220
aa(lp696
g4
(g8
S'N\xca\xdd\xf9;\xd5\xb8\xc0'
p697
tp698
Rp699
aI19239
aa(lp700
g4
(g8
S'\xc8\xb2\xedg\xdf\xdb\xb8\xc0'
p701
tp702
Rp703
aI19241
aa(lp704
g4
(g8
S't\x10\xf0\x85=\xe2\xb8\xc0'
p705
tp706
Rp707
aI19251
aa(lp708
g4
(g8
S'4\x9e\x0c\x15\x96\xe6\xb8\xc0'
p709
tp710
Rp711
aI19339
aa(lp712
g4
(g8
S'\xf2:\xba\xa0\x1e\xec\xb8\xc0'
p713
tp714
Rp715
aI19506
aa(lp716
g4
(g8
S'\xc6\xe3I\xd9s\x05\xb9\xc0'
p717
tp718
Rp719
aI19553
aa(lp720
g4
(g8
S'\xd2\xc4;]\x08\x11\xb9\xc0'
p721
tp722
Rp723
aI19716
aa(lp724
g13
aI19810
aaaa.