(lp0
(lp1
(lp2
F31.230150335157376
aF73.29877829048544
aF65.33874012935365
aF49.53975663455915
aF88.37674135274352
aF32.4418858704809
aF88.24023135350848
aF57.42593723780951
aF61.732772921750744
aF52.06484719735286
aF54.13715792261034
aF84.11245609965917
aF86.94636501330473
aF40.88152682194996
aF77.01709243225102
aF66.5871837386218
aF38.38897837700116
aF45.06447856473933
aF51.162880561445576
aF54.4246751319002
aF63.89850015938253
aF39.42105173833157
aF81.91205057621366
aF52.788842367756736
aF60.08564440568169
aF46.48443324341652
aF38.28942782693893
aF31.91615011378938
aF36.01377500905214
aF83.9070207414265
aF34.637762785312916
aF60.001487556565664
aF58.845009489669096
aF82.55350571498023
aF53.13690563438195
aF39.14215046575836
aF42.5900921898635
aF38.49132121248651
aF72.90325028950758
aF75.80192987500888
aF30.263955259959832
aF72.18595890910035
aF41.9225304655788
aF33.122421017734716
aF59.48339907829935
aF78.57998113271412
aF65.60108742277194
aF88.9481414473587
aF41.8253823626685
aF82.07695715171872
aF55.75139552638777
aF88.16060905915623
aF84.40608824010917
aF65.7134719783572
aF75.7683521905411
aF81.51021281355065
aF31.554576712574445
aF48.30645478794831
aF77.35199895366887
aF36.37986111324813
aF57.43844611402258
aF51.964782258586936
aF84.66410920042827
aF36.630222986519485
aF60.34982723488446
aF63.34079910030869
aF44.470537234699954
aF38.791246842977486
aF37.9772796575824
aF62.310644423048174
aF66.90662097860191
aF42.07628498770569
aF34.09006891925621
aF86.65761237372101
aF47.5258000904003
aF46.54462904277959
aF74.59202494907572
aF58.245185137437595
aF77.65365264518186
aF70.00942695726529
aF81.53171939041202
aF31.386926414840108
aF40.929305229034654
aF44.78889872555403
aF80.65633406675832
aF82.08394590126608
aF51.38822635293995
aF57.76957106433464
aF73.7465067062207
aF82.40003207380714
aF32.28294121113971
aF88.12962775698159
aF43.49566934346398
aF79.62075005730398
aF65.63593634897836
aF33.228393359295374
aF46.7219548074458
aF32.77186189836651
aF43.798986083668055
aF67.30378898389307
aF82.19373487974852
aF35.671266109652684
aF63.13694923506599
aF47.20935547653908
aF35.40305805724494
aF74.06247588073848
aF39.872517258979705
aF49.14605435427782
aF37.935862391597354
aF54.225037177793
aF34.44702495010101
aF71.05940912499362
aF62.80931529138323
aF38.71471288539669
aF61.7443482154076
aF81.20580007347996
aF78.01119471777452
aF86.76179699738032
aF86.30892899173881
aF88.59372110284708
aF67.17406045514542
aF64.77684501372117
aF77.51804384308517
aF85.89451902934786
aF77.11061564715641
aF43.83678270085805
aF75.16497342690148
aF39.545041339115485
aF52.16024735046591
aF73.8301437055224
aF70.25291576248931
aF35.2544276584323
aF84.28634128436266
aF35.879296923527335
aF41.72213290268772
aF88.55454438761508
aF83.44259406793968
aF54.748309970728315
aF66.266886049282
aF48.39732144180125
aF82.62015891172192
aF58.426136617633325
aF51.003741335838235
aF86.26978317223313
aF59.0447167028313
aF66.06312162698313
aF87.81222268253524
aF61.05902977110622
aF40.17808406529519
aF87.2746586641559
aF82.18660818250657
aF35.24456527764527
aF73.16648661144997
aF57.870778569121455
aF59.18239862678041
aF66.88618277105266
aF47.30540538403417
aF74.99025008405242
aF68.72613990479098
aF56.53734260605235
aF54.57404441888961
aF32.25782704530897
aF82.10660840084984
aF63.89555641414691
aF59.738241513837735
aF65.27561000524335
aF38.824706033431546
aF86.13075389266837
aF53.58739769890583
aF85.66165327460992
aF71.36657139558818
aF43.96107438797604
aF42.96122766021534
aF60.4700295173522
aF61.23973153100195
aF46.026295399671746
aF78.26602282128192
aF51.059063022633936
aF44.83623856690622
aF51.840517986860974
aF60.32571476140812
aF51.414069469073624
aF85.23292716047354
aF70.73243337529519
aF60.24688382473407
aF36.17902629675336
aF76.62681925867383
aF69.28666403418264
aF64.40716676247658
aF63.67912491714264
aF76.73726555183148
aF79.68530062409357
aF73.78137526315507
aF43.8887638361722
aF76.84152178316216
aF72.05994765346671
aF74.72749601049365
aF58.96155469689407
aF68.93996233543946
aF76.7072350850639
aF44.859989560286635
aF73.76192911999868
aF36.61826991718566
aF75.68327555913882
aF64.70671169771597
aF48.99684297755158
aF79.66628392267799
aF61.392532795478
aF56.44529098095157
aF53.223438011868254
aF76.26868873409099
aF84.08657924562411
aF86.46411903049793
aF88.91173503508531
aF76.15358485155396
aF54.648015784644144
aF61.14916680845707
aF86.44350691948439
aF87.82659877072837
aF75.85729679525511
aF38.68709697563708
aF67.35576681363185
aF83.5323528056926
aF65.62570157710027
aF72.79617613089444
aF66.92021050212405
aF35.54070126104273
aF48.78764483566685
aF75.03816684406243
aF56.61275330194097
aF41.419022506754146
aF52.11088069687595
aF73.63524698396151
aF59.27661936166905
aF59.33184024870047
aF48.893753247329045
aF62.09171684456919
aF84.12913011413727
aF35.74287387671742
aF64.88803293571672
aF54.690906980035436
aF64.33450667890187
aF86.7375268208097
aF74.42033262815782
aF34.86987578485849
aF79.66396426931335
aF83.36033227584949
aF35.33833786382851
aF32.42001962372825
aF72.90123853251032
aF67.70041287705791
aF46.08868754737982
aF66.7983297814971
aF36.88908305113093
aF72.65121251802336
aF79.16310991079348
aF80.79173842490295
aF74.78814312753613
aF55.80986081365897
aF83.90801406961118
aF88.24030564451577
aF69.16381864911759
aF73.91892026342366
aF53.012602008691594
aF83.14177815877959
aF46.72970721626673
aF40.242733274825504
aF54.87850257633866
aF76.25841972000599
aF87.91145700893028
aF57.15217499829715
aF67.95516568563201
aF80.91983263301827
aF70.96020286467515
aF64.73333078493786
aF53.773207633691186
aF58.93345594900721
aF63.74552411876411
aF41.100870431933316
aF60.78214208936839
aF47.5249368393431
aF52.97306997469353
aF40.931121526756115
aF61.73058901258722
aF85.70646300562808
aF61.32032504932671
aF39.14927062571235
aF72.71589034792359
aF59.66076505273095
aF82.57461996971284
aF73.5920421910879
aF62.14892439444511
aF69.5471421957009
aF78.55669096652453
aF81.80709987013836
aF66.15725520506939
aF67.29578807995372
aF70.80336550594481
aF55.15256472744676
aF61.94392825608547
aF51.644385874818695
aF53.16690798730947
aF49.78593812652876
aF78.47442674805464
aF72.07181328525817
aF75.07474651078385
aF58.20279142293036
aF35.79996809923001
aF67.73061582680938
aF66.63959441292066
aF60.819548338990074
aF82.01250834302708
aF72.77639889586126
aF39.52899364833241
aF51.39525918632948
aaa(lp3
cnumpy.core.multiarray
scalar
p4
(cnumpy
dtype
p5
(S'f8'
p6
I0
I1
tp7
Rp8
(I3
S'<'
p9
NNNI-1
I-1
I0
tp10
bS'\xb00w\x19\xcbu\x86\xc0'
p11
tp12
Rp13
aa(lp14
(lp15
(lp16
g4
(g8
S'\x80X!\xe0F\xab\xa9@'
p17
tp18
Rp19
aI0
aa(lp20
g4
(g8
S'\xd8n\xb0E\r\x8a\x9a@'
p21
tp22
Rp23
aI0
aa(lp24
g4
(g8
S'\x90>\x87*\x83j\x8d@'
p25
tp26
Rp27
aI0
aa(lp28
g4
(g8
S' \xc7\xfc\x94\xb9C\x82@'
p29
tp30
Rp31
aI0
aa(lp32
g4
(g8
S'\x00\x9aR\xe1\x95}Z@'
p33
tp34
Rp35
aI0
aa(lp36
g4
(g8
S'\xe0\x1be\x99*\xa0y\xc0'
p37
tp38
Rp39
aI0
aa(lp40
g4
(g8
S'\xa8c1E\xb8\x9e\x81\xc0'
p41
tp42
Rp43
aI0
aa(lp44
g4
(g8
S'H\x9e\x0c$\xb2\xda\x81\xc0'
p45
tp46
Rp47
aI0
aa(lp48
g13
aI0
aaaa.